	.file	"6934.f"
	.text
	.section	.rodata
	.align 4
.LC0:
	.long	80
.LC1:
	.string	"6934.f"
	.align 8
.LC2:
	.ascii	"(/' ERROR IN ROOTS.  THE CORRECT RESULT SHOULD BE:'         "
	.ascii	"       //6X,A/)"
	.text
	.globl	check_
	.type	check_, @function
check_:
.LFB0:
	.cfi_startproc
	pushq	%rbp
	.cfi_def_cfa_offset 16
	.cfi_offset 6, -16
	movq	%rsp, %rbp
	.cfi_def_cfa_register 6
	subq	$672, %rsp
	movq	%rdi, -632(%rbp)
	movq	%rsi, -640(%rbp)
	movq	%rdx, -648(%rbp)
	movq	%rcx, -656(%rbp)
	movq	%r8, -664(%rbp)
	leaq	-96(%rbp), %rsi
	movq	-640(%rbp), %rax
	movl	$1, %ecx
	leaq	.LC0(%rip), %rdx
	movq	%rax, %rdi
	call	fmout_
	movl	$1, -4(%rbp)
.L5:
	cmpl	$80, -4(%rbp)
	setg	%al
	movzbl	%al, %eax
	testl	%eax, %eax
	jne	.L7
	movl	-4(%rbp), %eax
	cltq
	movl	-4(%rbp), %edx
	movslq	%edx, %rdx
	subq	$1, %rdx
	movzbl	-96(%rbp,%rdx), %ecx
	movq	-632(%rbp), %rdx
	movzbl	-1(%rdx,%rax), %eax
	cmpb	%al, %cl
	je	.L3
	movq	-648(%rbp), %rax
	movl	(%rax), %eax
	leal	1(%rax), %edx
	movq	-648(%rbp), %rax
	movl	%edx, (%rax)
	leaq	.LC1(%rip), %rax
	movq	%rax, -616(%rbp)
	movl	$9526, -608(%rbp)
	leaq	.LC2(%rip), %rax
	movq	%rax, -544(%rbp)
	movq	$75, -536(%rbp)
	movl	$4096, -624(%rbp)
	movq	-656(%rbp), %rax
	movl	(%rax), %eax
	movl	%eax, -620(%rbp)
	leaq	-624(%rbp), %rax
	movq	%rax, %rdi
	call	_gfortran_st_write@PLT
	movq	-632(%rbp), %rcx
	leaq	-624(%rbp), %rax
	movl	$80, %edx
	movq	%rcx, %rsi
	movq	%rax, %rdi
	call	_gfortran_transfer_character_write@PLT
	leaq	-624(%rbp), %rax
	movq	%rax, %rdi
	call	_gfortran_st_write_done@PLT
	jmp	.L1
.L3:
	addl	$1, -4(%rbp)
	jmp	.L5
.L7:
	nop
	nop
.L1:
	leave
	.cfi_def_cfa 7, 8
	ret
	.cfi_endproc
.LFE0:
	.size	check_, .-check_
	.section	.rodata
	.align 4
.LC5:
	.long	0
	.align 4
.LC6:
	.long	1
	.text
	.globl	fmout_
	.type	fmout_, @function
fmout_:
.LFB1:
	.cfi_startproc
	pushq	%rbp
	.cfi_def_cfa_offset 16
	.cfi_offset 6, -16
	movq	%rsp, %rbp
	.cfi_def_cfa_register 6
	pushq	%rbx
	subq	$4168, %rsp
	.cfi_offset 3, -24
	movq	%rdi, -4136(%rbp)
	movq	%rsi, -4144(%rbp)
	movq	%rdx, -4152(%rbp)
	movq	%rcx, -4160(%rbp)
	movq	-4152(%rbp), %rax
	movl	(%rax), %eax
	cltq
	movq	%rax, -112(%rbp)
	movq	-112(%rbp), %rax
	movl	$0, %edx
	testq	%rax, %rax
	cmovs	%rdx, %rax
	movq	%rax, %r8
	movl	$0, %r9d
	movl	24+fmuser_(%rip), %eax
	movl	%eax, -116(%rbp)
	movl	$0, 24+fmuser_(%rip)
	movl	$0, 32+fmuser_(%rip)
	movl	2616+fm_(%rip), %eax
	addl	$1, %eax
	movl	%eax, 2616+fm_(%rip)
	movl	2616+fm_(%rip), %eax
	cltq
	subq	$1, %rax
	addq	$665, %rax
	leaq	0(,%rax,4), %rdx
	leaq	fm_(%rip), %rax
	movl	$32, (%rdx,%rax)
	movq	-4152(%rbp), %rax
	movl	(%rax), %ecx
	movl	$1, -20(%rbp)
.L10:
	cmpl	%ecx, -20(%rbp)
	setg	%al
	movzbl	%al, %eax
	testl	%eax, %eax
	jne	.L109
	movl	-20(%rbp), %eax
	cltq
	leaq	-1(%rax), %rsi
	movzbl	nbl.4001(%rip), %edx
	movq	-4144(%rbp), %rax
	movb	%dl, (%rax,%rsi)
	addl	$1, -20(%rbp)
	jmp	.L10
.L109:
	nop
	movq	-4136(%rbp), %rax
	movl	(%rax), %edx
	movl	2640+fm_(%rip), %eax
	cmpl	%eax, %edx
	jne	.L11
	movl	$1, -20(%rbp)
.L13:
	cmpl	$12, -20(%rbp)
	setg	%al
	movzbl	%al, %eax
	testl	%eax, %eax
	jne	.L110
	movl	-20(%rbp), %eax
	cltq
	leaq	-1(%rax), %rdx
	movl	-20(%rbp), %eax
	cltq
	leaq	-1(%rax), %rcx
	leaq	nunkno.4021(%rip), %rax
	movzbl	(%rdx,%rax), %edx
	movq	-4144(%rbp), %rax
	movb	%dl, (%rax,%rcx)
	addl	$1, -20(%rbp)
	jmp	.L13
.L110:
	nop
	movl	2616+fm_(%rip), %eax
	subl	$1, %eax
	movl	%eax, 2616+fm_(%rip)
	movl	-116(%rbp), %eax
	movl	%eax, 24+fmuser_(%rip)
	jmp	.L8
.L11:
	movq	-4136(%rbp), %rax
	movl	(%rax), %edx
	movl	2636+fm_(%rip), %eax
	cmpl	%eax, %edx
	jne	.L15
	movl	$1, -20(%rbp)
.L17:
	cmpl	$12, -20(%rbp)
	setg	%al
	movzbl	%al, %eax
	testl	%eax, %eax
	jne	.L111
	movl	-20(%rbp), %eax
	cltq
	leaq	-1(%rax), %rdx
	movl	-20(%rbp), %eax
	cltq
	leaq	-1(%rax), %rcx
	leaq	nexpov.4010(%rip), %rax
	movzbl	(%rdx,%rax), %edx
	movq	-4144(%rbp), %rax
	movb	%dl, (%rax,%rcx)
	addl	$1, -20(%rbp)
	jmp	.L17
.L111:
	nop
	movzbl	nplus.4013(%rip), %edx
	movq	-4144(%rbp), %rax
	movb	%dl, 1(%rax)
	movq	-4136(%rbp), %rax
	movl	4(%rax), %eax
	testl	%eax, %eax
	jns	.L18
	movzbl	minus.3993(%rip), %edx
	movq	-4144(%rbp), %rax
	movb	%dl, 1(%rax)
.L18:
	movl	2616+fm_(%rip), %eax
	subl	$1, %eax
	movl	%eax, 2616+fm_(%rip)
	movl	-116(%rbp), %eax
	movl	%eax, 24+fmuser_(%rip)
	jmp	.L8
.L15:
	movq	-4136(%rbp), %rax
	movl	(%rax), %edx
	movl	2632+fm_(%rip), %eax
	cmpl	%eax, %edx
	jne	.L19
	movl	$1, -20(%rbp)
.L21:
	cmpl	$12, -20(%rbp)
	setg	%al
	movzbl	%al, %eax
	testl	%eax, %eax
	jne	.L112
	movl	-20(%rbp), %eax
	cltq
	leaq	-1(%rax), %rdx
	movl	-20(%rbp), %eax
	cltq
	leaq	-1(%rax), %rcx
	leaq	nexpun.4012(%rip), %rax
	movzbl	(%rdx,%rax), %edx
	movq	-4144(%rbp), %rax
	movb	%dl, (%rax,%rcx)
	addl	$1, -20(%rbp)
	jmp	.L21
.L112:
	nop
	movzbl	nplus.4013(%rip), %edx
	movq	-4144(%rbp), %rax
	movb	%dl, 1(%rax)
	movq	-4136(%rbp), %rax
	movl	4(%rax), %eax
	testl	%eax, %eax
	jns	.L22
	movzbl	minus.3993(%rip), %edx
	movq	-4144(%rbp), %rax
	movb	%dl, 1(%rax)
.L22:
	movl	2616+fm_(%rip), %eax
	subl	$1, %eax
	movl	%eax, 2616+fm_(%rip)
	movl	-116(%rbp), %eax
	movl	%eax, 24+fmuser_(%rip)
	jmp	.L8
.L19:
	movl	2628+fm_(%rip), %eax
	movl	%eax, -120(%rbp)
	movl	$1, 2628+fm_(%rip)
	movl	40+fmuser_(%rip), %eax
	movl	%eax, -124(%rbp)
	movl	$1, 40+fmuser_(%rip)
	movl	8+fmuser_(%rip), %eax
	movl	%eax, -128(%rbp)
	movl	12+fmuser_(%rip), %eax
	movl	%eax, -132(%rbp)
.L29:
	movl	12+fmuser_(%rip), %eax
	movl	%eax, -76(%rbp)
	movl	8+fmuser_(%rip), %eax
	cmpl	$2, %eax
	sete	%al
	movzbl	%al, %edx
	movq	-4136(%rbp), %rax
	movl	(%rax), %eax
	testl	%eax, %eax
	setg	%al
	movzbl	%al, %eax
	andl	%edx, %eax
	testl	%eax, %eax
	je	.L23
	movl	12+fmuser_(%rip), %eax
	cvtsi2ssl	%eax, %xmm2
	movss	%xmm2, -4164(%rbp)
	movq	-4136(%rbp), %rax
	movl	(%rax), %eax
	cvtsi2ssl	%eax, %xmm4
	movss	%xmm4, -4168(%rbp)
	movl	4+fmuser_(%rip), %eax
	cvtsi2ssl	%eax, %xmm0
	call	log10f@PLT
	mulss	-4168(%rbp), %xmm0
	movss	-4164(%rbp), %xmm1
	addss	%xmm0, %xmm1
	movss	.LC3(%rip), %xmm0
	addss	%xmm1, %xmm0
	cvttss2sil	%xmm0, %eax
	movl	%eax, -76(%rbp)
.L23:
	cmpl	$1, -76(%rbp)
	jg	.L24
	movl	fmuser_(%rip), %eax
	cvtsi2ssl	%eax, %xmm5
	movss	%xmm5, -4164(%rbp)
	movl	4+fmuser_(%rip), %eax
	cvtsi2ssl	%eax, %xmm0
	call	log10f@PLT
	mulss	-4164(%rbp), %xmm0
	cvttss2sil	%xmm0, %eax
	movl	%eax, -28(%rbp)
	movl	-28(%rbp), %edx
	movl	12+fmuser_(%rip), %eax
	cmpl	%eax, %edx
	cmovge	%edx, %eax
	movl	%eax, -76(%rbp)
.L24:
	movl	12+fmuser_(%rip), %eax
	testl	%eax, %eax
	setle	%al
	movzbl	%al, %edx
	movl	8+fmuser_(%rip), %eax
	cmpl	$1, %eax
	setle	%al
	movzbl	%al, %eax
	andl	%edx, %eax
	testl	%eax, %eax
	je	.L25
	movl	fmuser_(%rip), %eax
	subl	$1, %eax
	cvtsi2ssl	%eax, %xmm3
	movss	%xmm3, -4164(%rbp)
	movl	4+fmuser_(%rip), %eax
	cvtsi2ssl	%eax, %xmm0
	call	log10f@PLT
	movss	-4164(%rbp), %xmm1
	mulss	%xmm0, %xmm1
	movss	.LC4(%rip), %xmm0
	addss	%xmm1, %xmm0
	cvttss2sil	%xmm0, %eax
	movl	%eax, -76(%rbp)
.L25:
	cmpl	$1, -76(%rbp)
	jg	.L26
	movl	$2, -76(%rbp)
.L26:
	movl	-76(%rbp), %eax
	leal	5(%rax), %edx
	movq	-4152(%rbp), %rax
	movl	(%rax), %eax
	cmpl	%eax, %edx
	jl	.L27
	movl	8+fmuser_(%rip), %eax
	cmpl	$2, %eax
	jne	.L113
	movl	$0, 8+fmuser_(%rip)
	movl	$0, 12+fmuser_(%rip)
	jmp	.L29
.L27:
	movl	2652+fm_(%rip), %eax
	cvtsi2ssl	%eax, %xmm0
	call	log10f@PLT
	cvttss2sil	%xmm0, %eax
	movl	%eax, -84(%rbp)
	movl	4+fmuser_(%rip), %eax
	movl	%eax, -168(%rbp)
	movl	fmuser_(%rip), %eax
	movl	%eax, -4116(%rbp)
	movl	2620+fm_(%rip), %eax
	movl	%eax, -72(%rbp)
	movl	2624+fm_(%rip), %eax
	movl	%eax, 2620+fm_(%rip)
	movl	-84(%rbp), %eax
	movl	%eax, %esi
	movl	$10, %edi
	call	_gfortran_pow_i4_i4@PLT
	movl	%eax, 4+fmuser_(%rip)
	movl	-76(%rbp), %eax
	cltd
	idivl	-84(%rbp)
	addl	$2, %eax
	movl	%eax, fmuser_(%rip)
	movl	fmuser_(%rip), %eax
	cmpl	$1, %eax
	jg	.L31
	movl	$2, fmuser_(%rip)
.L31:
	movl	fmuser_(%rip), %edx
	movl	2656+fm_(%rip), %eax
	cmpl	%eax, %edx
	jle	.L32
	movl	$-9, 32+fmuser_(%rip)
	call	fmwarn_
	jmp	.L30
.L32:
	movq	-4136(%rbp), %rax
	movl	4(%rax), %eax
	testl	%eax, %eax
	jne	.L33
	leaq	-2800(%rbp), %rax
	movq	%rax, %rsi
	leaq	.LC5(%rip), %rdi
	call	fmim_
	jmp	.L34
.L33:
	movl	-84(%rbp), %eax
	movl	%eax, -28(%rbp)
	movl	-28(%rbp), %ebx
	movl	$1, -20(%rbp)
.L39:
	cmpl	%ebx, -20(%rbp)
	setg	%al
	movzbl	%al, %eax
	testl	%eax, %eax
	jne	.L114
	movl	-20(%rbp), %eax
	movl	%eax, %esi
	movl	$10, %edi
	call	_gfortran_pow_i4_i4@PLT
	movl	%eax, 4+fmuser_(%rip)
	movl	4+fmuser_(%rip), %edx
	movl	-168(%rbp), %eax
	cmpl	%eax, %edx
	jne	.L36
	movl	-20(%rbp), %eax
	movl	%eax, -84(%rbp)
	movl	-76(%rbp), %eax
	cltd
	idivl	-84(%rbp)
	addl	$2, %eax
	movl	%eax, fmuser_(%rip)
	movl	fmuser_(%rip), %eax
	cmpl	$1, %eax
	jg	.L37
	movl	$2, fmuser_(%rip)
.L37:
	movl	fmuser_(%rip), %edx
	movl	2656+fm_(%rip), %eax
	cmpl	%eax, %edx
	jle	.L38
	movl	$-9, 32+fmuser_(%rip)
	call	fmwarn_
	jmp	.L30
.L38:
	leaq	-4116(%rbp), %rdx
	leaq	-2800(%rbp), %rsi
	movq	-4136(%rbp), %rax
	leaq	fmuser_(%rip), %rcx
	movq	%rax, %rdi
	call	fmequ_
	movl	-2796(%rbp), %eax
	cltd
	xorl	%edx, %eax
	subl	%edx, %eax
	movl	%eax, -2796(%rbp)
	jmp	.L34
.L36:
	addl	$1, -20(%rbp)
	jmp	.L39
.L114:
	nop
	leaq	-1488(%rbp), %rdx
	leaq	-168(%rbp), %rax
	movq	%rdx, %rsi
	movq	%rax, %rdi
	call	fmim_
	movl	-4116(%rbp), %eax
	addl	$1, %eax
	movl	%eax, -136(%rbp)
	leaq	-4112(%rbp), %rax
	movq	%rax, %rsi
	leaq	.LC6(%rip), %rdi
	call	fmim_
	movl	$1, -60(%rbp)
	movl	-136(%rbp), %eax
	addl	$1, %eax
	movl	%eax, -64(%rbp)
	movl	-136(%rbp), %eax
	movl	$3, -20(%rbp)
.L41:
	cmpl	%eax, -20(%rbp)
	setg	%dl
	movzbl	%dl, %edx
	testl	%edx, %edx
	jne	.L115
	subl	$1, -64(%rbp)
	movl	-64(%rbp), %edx
	movslq	%edx, %rdx
	leaq	-1(%rdx), %rcx
	movq	-4136(%rbp), %rdx
	movl	(%rdx,%rcx,4), %edx
	testl	%edx, %edx
	jne	.L115
	addl	$1, -20(%rbp)
	jmp	.L41
.L115:
	nop
	movl	-64(%rbp), %eax
	subl	$1, %eax
	movl	%eax, -140(%rbp)
	movq	-4136(%rbp), %rax
	movl	4(%rax), %eax
	cltd
	xorl	%edx, %eax
	subl	%edx, %eax
	movl	%eax, -176(%rbp)
	leaq	-2800(%rbp), %rdx
	leaq	-176(%rbp), %rax
	movq	%rdx, %rsi
	movq	%rax, %rdi
	call	fmim_
	movl	fmuser_(%rip), %eax
	movl	%eax, -144(%rbp)
	movl	-64(%rbp), %ebx
	movl	$3, -20(%rbp)
.L47:
	cmpl	%ebx, -20(%rbp)
	setg	%al
	movzbl	%al, %eax
	testl	%eax, %eax
	jne	.L116
	movl	-20(%rbp), %eax
	cltq
	leaq	-1(%rax), %rdx
	movq	-4136(%rbp), %rax
	movl	(%rax,%rdx,4), %eax
	movl	%eax, -176(%rbp)
	movl	-168(%rbp), %eax
	cmpl	$2, %eax
	jne	.L43
	movl	$2, %edx
	movl	-2800(%rbp), %eax
	addl	$1, %eax
	cmpl	%edx, %eax
	cmovge	%eax, %edx
	movl	-144(%rbp), %eax
	cmpl	%eax, %edx
	cmovle	%edx, %eax
	movl	%eax, fmuser_(%rip)
	leaq	-2800(%rbp), %rdx
	leaq	-2800(%rbp), %rcx
	leaq	-2800(%rbp), %rax
	movq	%rcx, %rsi
	movq	%rax, %rdi
	call	fmadd2_
	jmp	.L44
.L43:
	movl	$2, %edx
	movl	-2800(%rbp), %ecx
	movl	-1488(%rbp), %eax
	addl	%ecx, %eax
	cmpl	%edx, %eax
	cmovge	%eax, %edx
	movl	-144(%rbp), %eax
	cmpl	%eax, %edx
	cmovle	%edx, %eax
	movl	%eax, fmuser_(%rip)
	leaq	-2800(%rbp), %rdx
	leaq	-1488(%rbp), %rcx
	leaq	-2800(%rbp), %rax
	movq	%rcx, %rsi
	movq	%rax, %rdi
	call	fmmpy2_
.L44:
	movl	-176(%rbp), %eax
	testl	%eax, %eax
	jle	.L45
	movl	-176(%rbp), %eax
	cmpl	%eax, -60(%rbp)
	je	.L46
	movl	$2, %edx
	movl	-1488(%rbp), %eax
	cmpl	%edx, %eax
	cmovge	%eax, %edx
	movl	-144(%rbp), %eax
	cmpl	%eax, %edx
	cmovle	%edx, %eax
	movl	%eax, fmuser_(%rip)
	leaq	-4112(%rbp), %rdx
	leaq	-176(%rbp), %rax
	movq	%rdx, %rsi
	movq	%rax, %rdi
	call	fmim_
	movl	-176(%rbp), %eax
	movl	%eax, -60(%rbp)
.L46:
	movl	-2800(%rbp), %eax
	movl	-4112(%rbp), %edx
	cmpl	%eax, %edx
	cmovge	%edx, %eax
	movl	$2, %edx
	addl	$1, %eax
	cmpl	%edx, %eax
	cmovge	%eax, %edx
	movl	-144(%rbp), %eax
	cmpl	%eax, %edx
	cmovle	%edx, %eax
	movl	%eax, fmuser_(%rip)
	leaq	-2800(%rbp), %rdx
	leaq	-4112(%rbp), %rcx
	leaq	-2800(%rbp), %rax
	movq	%rcx, %rsi
	movq	%rax, %rdi
	call	fmadd2_
.L45:
	addl	$1, -20(%rbp)
	jmp	.L47
.L116:
	nop
	movl	-144(%rbp), %eax
	movl	%eax, fmuser_(%rip)
	leaq	-4112(%rbp), %rax
	movq	%rax, %rsi
	leaq	.LC6(%rip), %rdi
	call	fmim_
	movq	-4136(%rbp), %rax
	movl	(%rax), %eax
	subl	-140(%rbp), %eax
	movl	%eax, %edx
	movl	%edx, %eax
	sarl	$31, %eax
	xorl	%eax, %edx
	movl	%edx, -28(%rbp)
	subl	%eax, -28(%rbp)
	movl	-28(%rbp), %eax
	cltd
	shrl	$31, %edx
	addl	%edx, %eax
	andl	$1, %eax
	subl	%edx, %eax
	cmpl	$1, %eax
	jne	.L48
	leaq	-4112(%rbp), %rsi
	leaq	-1488(%rbp), %rax
	leaq	fmuser_(%rip), %rcx
	leaq	fmuser_(%rip), %rdx
	movq	%rax, %rdi
	call	fmequ_
	jmp	.L52
.L48:
	leaq	-4112(%rbp), %rax
	movq	%rax, %rsi
	leaq	.LC6(%rip), %rdi
	call	fmim_
.L52:
	movl	-28(%rbp), %eax
	movl	%eax, %edx
	shrl	$31, %edx
	addl	%edx, %eax
	sarl	%eax
	movl	%eax, -28(%rbp)
	movl	$2, %edx
	movl	-1488(%rbp), %eax
	addl	%eax, %eax
	cmpl	%edx, %eax
	cmovge	%eax, %edx
	movl	-144(%rbp), %eax
	cmpl	%eax, %edx
	cmovle	%edx, %eax
	movl	%eax, fmuser_(%rip)
	cmpl	$0, -28(%rbp)
	jle	.L50
	leaq	-1488(%rbp), %rdx
	leaq	-1488(%rbp), %rcx
	leaq	-1488(%rbp), %rax
	movq	%rcx, %rsi
	movq	%rax, %rdi
	call	fmmpy2_
.L50:
	movl	-28(%rbp), %eax
	cltd
	shrl	$31, %edx
	addl	%edx, %eax
	andl	$1, %eax
	subl	%edx, %eax
	cmpl	$1, %eax
	jne	.L51
	movl	$2, %edx
	movl	-4112(%rbp), %ecx
	movl	-1488(%rbp), %eax
	addl	%ecx, %eax
	cmpl	%edx, %eax
	cmovge	%eax, %edx
	movl	-144(%rbp), %eax
	cmpl	%eax, %edx
	cmovle	%edx, %eax
	movl	%eax, fmuser_(%rip)
	leaq	-4112(%rbp), %rdx
	leaq	-1488(%rbp), %rcx
	leaq	-4112(%rbp), %rax
	movq	%rcx, %rsi
	movq	%rax, %rdi
	call	fmmpy2_
.L51:
	cmpl	$1, -28(%rbp)
	jg	.L52
	movl	-144(%rbp), %eax
	movl	%eax, fmuser_(%rip)
	movq	-4136(%rbp), %rax
	movl	(%rax), %eax
	subl	-140(%rbp), %eax
	testl	%eax, %eax
	jns	.L53
	leaq	-2800(%rbp), %rdx
	leaq	-4112(%rbp), %rcx
	leaq	-2800(%rbp), %rax
	movq	%rcx, %rsi
	movq	%rax, %rdi
	call	fmdiv2_
	jmp	.L34
.L53:
	leaq	-2800(%rbp), %rdx
	leaq	-4112(%rbp), %rcx
	leaq	-2800(%rbp), %rax
	movq	%rcx, %rsi
	movq	%rax, %rdi
	call	fmmpy2_
.L34:
	movl	-2800(%rbp), %eax
	movl	%eax, -148(%rbp)
	jmp	.L70
.L118:
	nop
.L70:
	movl	-2800(%rbp), %eax
	movl	-84(%rbp), %edx
	imull	%edx, %eax
	movl	%eax, -52(%rbp)
	movl	-84(%rbp), %eax
	movl	%eax, -56(%rbp)
	movl	4+fmuser_(%rip), %eax
	movl	%eax, -28(%rbp)
	movl	-84(%rbp), %edx
	movl	$1, -20(%rbp)
.L56:
	cmpl	%edx, -20(%rbp)
	setg	%al
	movzbl	%al, %eax
	testl	%eax, %eax
	jne	.L117
	movl	-28(%rbp), %eax
	movslq	%eax, %rcx
	imulq	$1717986919, %rcx, %rcx
	shrq	$32, %rcx
	sarl	$2, %ecx
	sarl	$31, %eax
	subl	%eax, %ecx
	movl	%ecx, %eax
	movl	%eax, -28(%rbp)
	movl	-2796(%rbp), %eax
	cmpl	%eax, -28(%rbp)
	setg	%al
	movzbl	%al, %ecx
	movl	-2796(%rbp), %eax
	testl	%eax, %eax
	setne	%al
	movzbl	%al, %eax
	andl	%ecx, %eax
	testl	%eax, %eax
	je	.L55
	subl	$1, -52(%rbp)
	subl	$1, -56(%rbp)
.L55:
	addl	$1, -20(%rbp)
	jmp	.L56
.L117:
	nop
	movl	8+fmuser_(%rip), %eax
	cmpl	$1, %eax
	sete	%al
	movzbl	%al, %edx
	movl	-2796(%rbp), %eax
	testl	%eax, %eax
	setne	%al
	movzbl	%al, %eax
	andl	%edx, %eax
	testl	%eax, %eax
	je	.L57
	subl	$1, -52(%rbp)
.L57:
	movl	-76(%rbp), %eax
	movl	%eax, -88(%rbp)
	movl	8+fmuser_(%rip), %eax
	cmpl	$2, %eax
	jne	.L58
	movl	12+fmuser_(%rip), %edx
	movl	-52(%rbp), %eax
	addl	%edx, %eax
	movl	%eax, -88(%rbp)
	movl	-88(%rbp), %eax
	cmpl	-76(%rbp), %eax
	jle	.L59
	movl	-76(%rbp), %eax
	movl	%eax, -88(%rbp)
.L59:
	movl	-88(%rbp), %eax
	subl	-56(%rbp), %eax
	leal	-1(%rax), %edx
	movl	-84(%rbp), %eax
	addl	%edx, %eax
	cltd
	idivl	-84(%rbp)
	addl	$2, %eax
	movl	%eax, -96(%rbp)
	cmpl	$1, -96(%rbp)
	jg	.L60
	movl	$-1, -96(%rbp)
.L60:
	movl	fmuser_(%rip), %eax
	cmpl	%eax, -96(%rbp)
	jle	.L61
	movl	$0, -96(%rbp)
.L61:
	cmpl	$1, -96(%rbp)
	setg	%al
	movzbl	%al, %edx
	cmpl	$0, -88(%rbp)
	setle	%al
	movzbl	%al, %eax
	andl	%edx, %eax
	testl	%eax, %eax
	je	.L62
	movl	$-1, -96(%rbp)
	jmp	.L62
.L58:
	movl	-76(%rbp), %eax
	subl	-56(%rbp), %eax
	leal	-1(%rax), %edx
	movl	-84(%rbp), %eax
	addl	%edx, %eax
	cltd
	idivl	-84(%rbp)
	addl	$2, %eax
	movl	%eax, -96(%rbp)
.L62:
	movl	-96(%rbp), %eax
	subl	$2, %eax
	imull	-84(%rbp), %eax
	movl	%eax, %edx
	movl	-56(%rbp), %eax
	addl	%edx, %eax
	movl	%eax, -152(%rbp)
	cmpl	$1, -96(%rbp)
	jg	.L63
	movl	$0, -92(%rbp)
	jmp	.L64
.L63:
	movl	-152(%rbp), %eax
	subl	-88(%rbp), %eax
	movl	%eax, %esi
	movl	$10, %edi
	call	_gfortran_pow_i4_i4@PLT
	movl	%eax, -92(%rbp)
.L64:
	cmpl	$1, -96(%rbp)
	jle	.L65
	pxor	%xmm0, %xmm0
	movss	%xmm0, -100(%rbp)
	cmpl	$1, -92(%rbp)
	jle	.L66
	movl	-96(%rbp), %eax
	cltq
	subq	$1, %rax
	movl	-2800(%rbp,%rax,4), %eax
	cltd
	idivl	-92(%rbp)
	movl	%edx, %eax
	cvtsi2ssl	%eax, %xmm0
	movss	%xmm0, -100(%rbp)
.L66:
	movl	fmuser_(%rip), %eax
	cmpl	%eax, -96(%rbp)
	jg	.L67
	movl	-96(%rbp), %eax
	addl	$1, %eax
	cltq
	subq	$1, %rax
	movl	-2800(%rbp,%rax,4), %eax
	cvtsi2ssl	%eax, %xmm0
	movl	4+fmuser_(%rip), %eax
	cvtsi2ssl	%eax, %xmm1
	divss	%xmm1, %xmm0
	movss	-100(%rbp), %xmm1
	addss	%xmm1, %xmm0
	movss	%xmm0, -100(%rbp)
.L67:
	cvtsi2ssl	-92(%rbp), %xmm1
	movss	-100(%rbp), %xmm0
	divss	%xmm1, %xmm0
	movss	%xmm0, -100(%rbp)
	movss	.LC8(%rip), %xmm0
	comiss	-100(%rbp), %xmm0
	ja	.L65
	movl	-2796(%rbp), %eax
	movl	%eax, -156(%rbp)
	movl	-96(%rbp), %eax
	cltq
	subq	$1, %rax
	movl	-2800(%rbp,%rax,4), %eax
	cltd
	idivl	-92(%rbp)
	movl	%eax, %ecx
	movl	-96(%rbp), %eax
	cltq
	leaq	-1(%rax), %rdx
	movl	%ecx, %eax
	imull	-92(%rbp), %eax
	movl	%eax, -2800(%rbp,%rdx,4)
	movl	-96(%rbp), %eax
	addl	$1, %eax
	cltq
	subq	$1, %rax
	movl	$0, -2800(%rbp,%rax,4)
	movl	-96(%rbp), %eax
	addl	$2, %eax
	cltq
	subq	$1, %rax
	movl	$0, -2800(%rbp,%rax,4)
	movl	-96(%rbp), %eax
	cltq
	subq	$1, %rax
	movl	-2800(%rbp,%rax,4), %ecx
	movl	-96(%rbp), %eax
	cltq
	subq	$1, %rax
	movl	-92(%rbp), %edx
	addl	%ecx, %edx
	movl	%edx, -2800(%rbp,%rax,4)
	movl	-96(%rbp), %eax
	cltq
	subq	$1, %rax
	movl	-2800(%rbp,%rax,4), %edx
	movl	4+fmuser_(%rip), %eax
	cmpl	%eax, %edx
	jl	.L68
	movl	-96(%rbp), %eax
	subl	$1, %eax
	movl	%eax, -4120(%rbp)
	movl	-96(%rbp), %eax
	subl	$2, %eax
	movl	%eax, -4124(%rbp)
	cmpl	$2, -96(%rbp)
	jle	.L69
	leaq	-4124(%rbp), %rcx
	leaq	-4120(%rbp), %rdx
	leaq	-2800(%rbp), %rsi
	leaq	-2800(%rbp), %rax
	movq	%rax, %rdi
	call	fmequ_
	jmp	.L68
.L69:
	movl	-2800(%rbp), %eax
	addl	$1, %eax
	movl	%eax, -2800(%rbp)
	movl	-2796(%rbp), %eax
	movl	4+fmuser_(%rip), %ebx
	cltd
	idivl	%ebx
	movl	%eax, -2796(%rbp)
	movl	$0, -2792(%rbp)
.L68:
	movl	-2800(%rbp), %eax
	cmpl	%eax, -148(%rbp)
	setne	%al
	movzbl	%al, %edx
	movl	-2796(%rbp), %eax
	cmpl	%eax, -156(%rbp)
	setne	%al
	movzbl	%al, %eax
	orl	%edx, %eax
	testl	%eax, %eax
	jne	.L118
.L65:
	movq	-4136(%rbp), %rax
	movl	4(%rax), %eax
	testl	%eax, %eax
	jns	.L71
	movzbl	minus.3993(%rip), %edx
	movq	-4144(%rbp), %rax
	movb	%dl, (%rax)
.L71:
	movzbl	ndpt.4006(%rip), %edx
	movq	-4144(%rbp), %rax
	movb	%dl, 1(%rax)
	movl	-56(%rbp), %eax
	movl	%eax, %esi
	movl	$10, %edi
	call	_gfortran_pow_i4_i4@PLT
	movl	%eax, -28(%rbp)
	movl	$2, -68(%rbp)
	cmpl	$-1, -96(%rbp)
	jne	.L72
	movl	-76(%rbp), %eax
	movl	%eax, -88(%rbp)
.L72:
	movl	-88(%rbp), %ecx
	movl	$1, -20(%rbp)
.L75:
	cmpl	%ecx, -20(%rbp)
	setg	%al
	movzbl	%al, %eax
	testl	%eax, %eax
	jne	.L119
	movl	-28(%rbp), %eax
	movslq	%eax, %rdx
	imulq	$1717986919, %rdx, %rdx
	shrq	$32, %rdx
	sarl	$2, %edx
	sarl	$31, %eax
	subl	%eax, %edx
	movl	%edx, %eax
	movl	%eax, -28(%rbp)
	cmpl	$0, -28(%rbp)
	jne	.L74
	movl	4+fmuser_(%rip), %eax
	movslq	%eax, %rdx
	imulq	$1717986919, %rdx, %rdx
	shrq	$32, %rdx
	sarl	$2, %edx
	sarl	$31, %eax
	subl	%eax, %edx
	movl	%edx, %eax
	movl	%eax, -28(%rbp)
	addl	$1, -68(%rbp)
.L74:
	movl	-68(%rbp), %eax
	cltq
	subq	$1, %rax
	movl	-2800(%rbp,%rax,4), %eax
	cltd
	idivl	-28(%rbp)
	movl	%eax, -176(%rbp)
	movl	-68(%rbp), %eax
	cltq
	subq	$1, %rax
	movl	-2800(%rbp,%rax,4), %eax
	movl	-68(%rbp), %edx
	movslq	%edx, %rdx
	leaq	-1(%rdx), %rsi
	cltd
	idivl	-28(%rbp)
	movl	%edx, %eax
	movl	%eax, -2800(%rbp,%rsi,4)
	movl	-176(%rbp), %eax
	addl	$1, %eax
	cltq
	leaq	-1(%rax), %rdx
	movl	-20(%rbp), %eax
	addl	$2, %eax
	cltq
	leaq	-1(%rax), %rsi
	leaq	numb.4019(%rip), %rax
	movzbl	(%rdx,%rax), %edx
	movq	-4144(%rbp), %rax
	movb	%dl, (%rax,%rsi)
	addl	$1, -20(%rbp)
	jmp	.L75
.L119:
	nop
	movl	-88(%rbp), %eax
	addl	$3, %eax
	movl	%eax, -160(%rbp)
	movl	-76(%rbp), %eax
	addl	$2, %eax
	movl	%eax, -40(%rbp)
	movl	-40(%rbp), %eax
	cmpl	-160(%rbp), %eax
	jl	.L76
	movl	-160(%rbp), %eax
	movl	-40(%rbp), %ecx
	movl	%eax, -20(%rbp)
.L78:
	cmpl	%ecx, -20(%rbp)
	setg	%al
	movzbl	%al, %eax
	testl	%eax, %eax
	jne	.L120
	movl	-20(%rbp), %eax
	cltq
	leaq	-1(%rax), %rsi
	movzbl	numb.4019(%rip), %edx
	movq	-4144(%rbp), %rax
	movb	%dl, (%rax,%rsi)
	addl	$1, -20(%rbp)
	jmp	.L78
.L120:
	nop
.L76:
	movl	-76(%rbp), %eax
	addl	$3, %eax
	cltq
	leaq	-1(%rax), %rcx
	movzbl	m.3990(%rip), %edx
	movq	-4144(%rbp), %rax
	movb	%dl, (%rax,%rcx)
	movl	-76(%rbp), %eax
	addl	$4, %eax
	cltq
	leaq	-1(%rax), %rcx
	movzbl	nplus.4013(%rip), %edx
	movq	-4144(%rbp), %rax
	movb	%dl, (%rax,%rcx)
	cmpl	$0, -52(%rbp)
	jns	.L79
	movl	-76(%rbp), %eax
	addl	$4, %eax
	cltq
	leaq	-1(%rax), %rcx
	movzbl	minus.3993(%rip), %edx
	movq	-4144(%rbp), %rax
	movb	%dl, (%rax,%rcx)
.L79:
	movq	-4136(%rbp), %rax
	movl	4(%rax), %eax
	testl	%eax, %eax
	jne	.L80
	movl	-76(%rbp), %eax
	addl	$4, %eax
	cltq
	leaq	-1(%rax), %rcx
	movzbl	nbl.4001(%rip), %edx
	movq	-4144(%rbp), %rax
	movb	%dl, (%rax,%rcx)
.L80:
	movl	$1, -80(%rbp)
	movl	-52(%rbp), %eax
	sarl	$31, %eax
	movl	%eax, %edx
	xorl	-52(%rbp), %edx
	subl	%eax, %edx
	movl	%edx, %eax
	movl	%eax, -48(%rbp)
	movq	-4152(%rbp), %rax
	movl	(%rax), %esi
	movl	$1, -20(%rbp)
.L86:
	cmpl	%esi, -20(%rbp)
	setg	%al
	movzbl	%al, %eax
	testl	%eax, %eax
	jne	.L121
	movl	-48(%rbp), %ecx
	movslq	%ecx, %rax
	imulq	$1717986919, %rax, %rax
	shrq	$32, %rax
	movl	%eax, %edx
	sarl	$2, %edx
	movl	%ecx, %eax
	sarl	$31, %eax
	subl	%eax, %edx
	movl	%edx, %eax
	sall	$2, %eax
	addl	%edx, %eax
	addl	%eax, %eax
	subl	%eax, %ecx
	movl	%ecx, %edx
	movl	%edx, -176(%rbp)
	movl	-176(%rbp), %eax
	addl	$1, %eax
	cltq
	leaq	-1(%rax), %rdx
	movl	-76(%rbp), %eax
	leal	4(%rax), %ecx
	movl	-20(%rbp), %eax
	addl	%ecx, %eax
	cltq
	leaq	-1(%rax), %rcx
	leaq	numb.4019(%rip), %rax
	movzbl	(%rdx,%rax), %edx
	movq	-4144(%rbp), %rax
	movb	%dl, (%rax,%rcx)
	movl	-48(%rbp), %eax
	movslq	%eax, %rdx
	imulq	$1717986919, %rdx, %rdx
	shrq	$32, %rdx
	sarl	$2, %edx
	sarl	$31, %eax
	subl	%eax, %edx
	movl	%edx, %eax
	movl	%eax, -48(%rbp)
	cmpl	$0, -48(%rbp)
	je	.L121
	movl	-76(%rbp), %eax
	leal	5(%rax), %edx
	movl	-20(%rbp), %eax
	addl	%eax, %edx
	movq	-4152(%rbp), %rax
	movl	(%rax), %eax
	cmpl	%eax, %edx
	jle	.L82
	movq	-4152(%rbp), %rax
	movl	(%rax), %ecx
	movl	$1, -28(%rbp)
.L84:
	cmpl	%ecx, -28(%rbp)
	setg	%al
	movzbl	%al, %eax
	testl	%eax, %eax
	jne	.L122
	movl	-28(%rbp), %eax
	cltq
	leaq	-1(%rax), %rsi
	movzbl	kstar.3985(%rip), %edx
	movq	-4144(%rbp), %rax
	movb	%dl, (%rax,%rsi)
	addl	$1, -28(%rbp)
	jmp	.L84
.L122:
	nop
	jmp	.L85
.L82:
	addl	$1, -80(%rbp)
	addl	$1, -20(%rbp)
	jmp	.L86
.L121:
	nop
	movl	-80(%rbp), %eax
	movl	%eax, %edx
	shrl	$31, %edx
	addl	%edx, %eax
	sarl	%eax
	movl	%eax, -164(%rbp)
	cmpl	$0, -164(%rbp)
	jle	.L123
	movl	-76(%rbp), %eax
	addl	$4, %eax
	movl	%eax, -32(%rbp)
	movl	-76(%rbp), %eax
	leal	5(%rax), %edx
	movl	-80(%rbp), %eax
	addl	%edx, %eax
	movl	%eax, -36(%rbp)
	movl	-164(%rbp), %ecx
	movl	$1, -20(%rbp)
.L87:
	cmpl	%ecx, -20(%rbp)
	setg	%al
	movzbl	%al, %eax
	testl	%eax, %eax
	jne	.L123
	addl	$1, -32(%rbp)
	subl	$1, -36(%rbp)
	movl	-32(%rbp), %eax
	cltq
	leaq	-1(%rax), %rdx
	movq	-4144(%rbp), %rax
	movzbl	(%rax,%rdx), %eax
	movb	%al, -169(%rbp)
	movl	-36(%rbp), %eax
	cltq
	leaq	-1(%rax), %rdx
	movl	-32(%rbp), %eax
	cltq
	leaq	-1(%rax), %rsi
	movq	-4144(%rbp), %rax
	movzbl	(%rax,%rdx), %edx
	movq	-4144(%rbp), %rax
	movb	%dl, (%rax,%rsi)
	movl	-36(%rbp), %eax
	cltq
	leaq	-1(%rax), %rsi
	movzbl	-169(%rbp), %edx
	movq	-4144(%rbp), %rax
	movb	%dl, (%rax,%rsi)
	addl	$1, -20(%rbp)
	jmp	.L87
.L123:
	nop
.L85:
	movl	8+fmuser_(%rip), %eax
	cmpl	$1, %eax
	jne	.L88
	movq	-4144(%rbp), %rax
	movzbl	1(%rax), %eax
	movb	%al, -169(%rbp)
	movq	-4144(%rbp), %rax
	movzbl	2(%rax), %edx
	movq	-4144(%rbp), %rax
	movb	%dl, 1(%rax)
	movzbl	-169(%rbp), %edx
	movq	-4144(%rbp), %rax
	movb	%dl, 2(%rax)
.L88:
	movl	8+fmuser_(%rip), %eax
	cmpl	$2, %eax
	sete	%al
	movzbl	%al, %eax
	movl	12+fmuser_(%rip), %edx
	notl	%edx
	shrl	$31, %edx
	andl	%edx, %eax
	testl	%eax, %eax
	je	.L124
	movl	12+fmuser_(%rip), %eax
	negl	%eax
	cmpl	%eax, -52(%rbp)
	setle	%al
	movzbl	%al, %edx
	movl	-52(%rbp), %eax
	leal	1(%rax), %ecx
	movq	-4152(%rbp), %rax
	movl	(%rax), %eax
	cmpl	%eax, %ecx
	setge	%al
	movzbl	%al, %eax
	orl	%edx, %eax
	testl	%eax, %eax
	je	.L90
	movl	$0, 8+fmuser_(%rip)
	movl	$0, 12+fmuser_(%rip)
	movl	-168(%rbp), %eax
	movl	%eax, 4+fmuser_(%rip)
	movl	-4116(%rbp), %eax
	movl	%eax, fmuser_(%rip)
	movl	-72(%rbp), %eax
	movl	%eax, 2620+fm_(%rip)
	movq	-4152(%rbp), %rax
	movl	(%rax), %ecx
	movl	$1, -20(%rbp)
.L92:
	cmpl	%ecx, -20(%rbp)
	setg	%al
	movzbl	%al, %eax
	testl	%eax, %eax
	jne	.L125
	movl	-20(%rbp), %eax
	cltq
	leaq	-1(%rax), %rsi
	movzbl	nbl.4001(%rip), %edx
	movq	-4144(%rbp), %rax
	movb	%dl, (%rax,%rsi)
	addl	$1, -20(%rbp)
	jmp	.L92
.L125:
	nop
	jmp	.L29
.L90:
	movl	-76(%rbp), %eax
	addl	$3, %eax
	movl	%eax, -160(%rbp)
	movl	-160(%rbp), %eax
	movq	-4152(%rbp), %rdx
	movl	(%rdx), %ecx
	movl	%eax, -20(%rbp)
.L94:
	cmpl	%ecx, -20(%rbp)
	setg	%al
	movzbl	%al, %eax
	testl	%eax, %eax
	jne	.L126
	movl	-20(%rbp), %eax
	cltq
	leaq	-1(%rax), %rsi
	movzbl	numb.4019(%rip), %edx
	movq	-4144(%rbp), %rax
	movb	%dl, (%rax,%rsi)
	addl	$1, -20(%rbp)
	jmp	.L94
.L126:
	nop
	cmpl	$0, -52(%rbp)
	jle	.L95
	movl	-52(%rbp), %eax
	movl	%eax, -48(%rbp)
	movl	-48(%rbp), %ecx
	movl	$1, -20(%rbp)
.L97:
	cmpl	%ecx, -20(%rbp)
	setg	%al
	movzbl	%al, %eax
	testl	%eax, %eax
	jne	.L127
	movl	-20(%rbp), %eax
	addl	$2, %eax
	cltq
	leaq	-1(%rax), %rdx
	movl	-20(%rbp), %eax
	addl	$1, %eax
	cltq
	leaq	-1(%rax), %rsi
	movq	-4144(%rbp), %rax
	movzbl	(%rax,%rdx), %edx
	movq	-4144(%rbp), %rax
	movb	%dl, (%rax,%rsi)
	addl	$1, -20(%rbp)
	jmp	.L97
.L127:
	nop
	movl	-48(%rbp), %eax
	addl	$2, %eax
	cltq
	leaq	-1(%rax), %rcx
	movzbl	ndpt.4006(%rip), %edx
	movq	-4144(%rbp), %rax
	movb	%dl, (%rax,%rcx)
.L95:
	cmpl	$0, -52(%rbp)
	jns	.L98
	movl	-52(%rbp), %eax
	negl	%eax
	movl	%eax, -48(%rbp)
	movl	-48(%rbp), %eax
	addl	$3, %eax
	movl	%eax, -160(%rbp)
	movq	-4152(%rbp), %rax
	movl	(%rax), %eax
	addl	$1, %eax
	movl	%eax, -40(%rbp)
	movl	-40(%rbp), %eax
	subl	-48(%rbp), %eax
	movl	%eax, -44(%rbp)
	movl	-160(%rbp), %eax
	movq	-4152(%rbp), %rdx
	movl	(%rdx), %ecx
	movl	%eax, -20(%rbp)
.L100:
	cmpl	%ecx, -20(%rbp)
	setg	%al
	movzbl	%al, %eax
	testl	%eax, %eax
	jne	.L128
	subl	$1, -40(%rbp)
	subl	$1, -44(%rbp)
	movl	-44(%rbp), %eax
	cltq
	leaq	-1(%rax), %rdx
	movl	-40(%rbp), %eax
	cltq
	leaq	-1(%rax), %rsi
	movq	-4144(%rbp), %rax
	movzbl	(%rax,%rdx), %edx
	movq	-4144(%rbp), %rax
	movb	%dl, (%rax,%rsi)
	movl	-44(%rbp), %eax
	cltq
	leaq	-1(%rax), %rsi
	movzbl	numb.4019(%rip), %edx
	movq	-4144(%rbp), %rax
	movb	%dl, (%rax,%rsi)
	addl	$1, -20(%rbp)
	jmp	.L100
.L128:
	nop
.L98:
	movl	$0, -24(%rbp)
	movq	-4152(%rbp), %rax
	movl	(%rax), %eax
	movl	$1, -20(%rbp)
.L104:
	cmpl	%eax, -20(%rbp)
	setg	%dl
	movzbl	%dl, %edx
	testl	%edx, %edx
	jne	.L129
	movl	-20(%rbp), %edx
	movslq	%edx, %rdx
	leaq	-1(%rdx), %rcx
	movq	-4144(%rbp), %rdx
	movzbl	(%rdx,%rcx), %ecx
	movzbl	ndpt.4006(%rip), %edx
	cmpb	%dl, %cl
	jne	.L102
	movl	-20(%rbp), %edx
	movl	%edx, -24(%rbp)
.L102:
	cmpl	$0, -24(%rbp)
	setg	%dl
	movzbl	%dl, %ecx
	movl	12+fmuser_(%rip), %esi
	movl	-24(%rbp), %edx
	addl	%esi, %edx
	cmpl	%edx, -20(%rbp)
	setg	%dl
	movzbl	%dl, %edx
	andl	%ecx, %edx
	testl	%edx, %edx
	je	.L103
	movl	-20(%rbp), %edx
	movslq	%edx, %rdx
	leaq	-1(%rdx), %rsi
	movzbl	nbl.4001(%rip), %ecx
	movq	-4144(%rbp), %rdx
	movb	%cl, (%rdx,%rsi)
.L103:
	addl	$1, -20(%rbp)
	jmp	.L104
.L129:
	nop
	movl	12+fmuser_(%rip), %eax
	testl	%eax, %eax
	sete	%al
	movzbl	%al, %edx
	cmpl	$0, -24(%rbp)
	setg	%al
	movzbl	%al, %eax
	andl	%edx, %eax
	testl	%eax, %eax
	je	.L124
	movl	-48(%rbp), %eax
	addl	$2, %eax
	cltq
	leaq	-1(%rax), %rcx
	movzbl	nbl.4001(%rip), %edx
	movq	-4144(%rbp), %rax
	movb	%dl, (%rax,%rcx)
	jmp	.L124
.L113:
	nop
.L30:
	movl	$-8, 32+fmuser_(%rip)
	movq	-4152(%rbp), %rax
	movl	(%rax), %ecx
	movl	$1, -20(%rbp)
.L107:
	cmpl	%ecx, -20(%rbp)
	setg	%al
	movzbl	%al, %eax
	testl	%eax, %eax
	jne	.L130
	movl	-20(%rbp), %eax
	cltq
	leaq	-1(%rax), %rsi
	movzbl	kstar.3985(%rip), %edx
	movq	-4144(%rbp), %rax
	movb	%dl, (%rax,%rsi)
	addl	$1, -20(%rbp)
	jmp	.L107
.L130:
	nop
	call	fmwarn_
	jmp	.L105
.L124:
	nop
.L105:
	movl	-168(%rbp), %eax
	movl	%eax, 4+fmuser_(%rip)
	movl	-4116(%rbp), %eax
	movl	%eax, fmuser_(%rip)
	movl	-72(%rbp), %eax
	movl	%eax, 2620+fm_(%rip)
	movl	2616+fm_(%rip), %eax
	subl	$1, %eax
	movl	%eax, 2616+fm_(%rip)
	movl	-120(%rbp), %eax
	movl	%eax, 2628+fm_(%rip)
	movl	-116(%rbp), %eax
	movl	%eax, 24+fmuser_(%rip)
	movl	-124(%rbp), %eax
	movl	%eax, 40+fmuser_(%rip)
	movl	-128(%rbp), %eax
	movl	%eax, 8+fmuser_(%rip)
	movl	-132(%rbp), %eax
	movl	%eax, 12+fmuser_(%rip)
	nop
.L8:
	addq	$4168, %rsp
	popq	%rbx
	popq	%rbp
	.cfi_def_cfa 7, 8
	ret
	.cfi_endproc
.LFE1:
	.size	fmout_, .-fmout_
	.section	.rodata
.LC10:
	.ascii	"(6X,73A1)"
	.text
	.globl	fmprnt_
	.type	fmprnt_, @function
fmprnt_:
.LFB2:
	.cfi_startproc
	pushq	%rbp
	.cfi_def_cfa_offset 16
	.cfi_offset 6, -16
	movq	%rsp, %rbp
	.cfi_def_cfa_register 6
	pushq	%rbx
	subq	$584, %rsp
	.cfi_offset 3, -24
	movq	%rdi, -584(%rbp)
	movl	32+fmuser_(%rip), %eax
	movl	%eax, -32(%rbp)
	movl	fmuser_(%rip), %eax
	cvtsi2ssl	%eax, %xmm2
	movss	%xmm2, -588(%rbp)
	movl	4+fmuser_(%rip), %eax
	cvtsi2ssl	%eax, %xmm0
	call	log10f@PLT
	movss	-588(%rbp), %xmm1
	mulss	%xmm0, %xmm1
	movss	.LC3(%rip), %xmm0
	addss	%xmm1, %xmm0
	cvttss2sil	%xmm0, %eax
	movl	%eax, -28(%rbp)
	cmpl	$1, -28(%rbp)
	jg	.L132
	movl	$2, -28(%rbp)
.L132:
	movl	2652+fm_(%rip), %eax
	cvtsi2ssl	%eax, %xmm0
	call	log10f@PLT
	movaps	%xmm0, %xmm1
	addss	%xmm0, %xmm1
	movss	.LC9(%rip), %xmm0
	addss	%xmm1, %xmm0
	cvttss2sil	%xmm0, %eax
	movl	%eax, -36(%rbp)
	movl	12+fmuser_(%rip), %edx
	movl	-36(%rbp), %eax
	addl	%edx, %eax
	movl	-28(%rbp), %ecx
	movl	-36(%rbp), %edx
	addl	%ecx, %edx
	cmpl	%eax, %edx
	cmovge	%edx, %eax
	movl	%eax, -48(%rbp)
	movl	-48(%rbp), %eax
	movl	$1545, %edx
	cmpl	$1545, %eax
	cmovg	%edx, %eax
	movl	%eax, -48(%rbp)
	leaq	-48(%rbp), %rdx
	movq	-584(%rbp), %rax
	movl	$1, %ecx
	leaq	fmbuff_(%rip), %rsi
	movq	%rax, %rdi
	call	fmout_
	movl	-32(%rbp), %eax
	movl	%eax, 32+fmuser_(%rip)
	movl	-48(%rbp), %eax
	addl	$1, %eax
	movl	%eax, -40(%rbp)
	movl	-48(%rbp), %eax
	movl	$1, -20(%rbp)
.L138:
	cmpl	%eax, -20(%rbp)
	setg	%dl
	movzbl	%dl, %edx
	testl	%edx, %edx
	jne	.L140
	movl	-40(%rbp), %edx
	subl	-20(%rbp), %edx
	movslq	%edx, %rdx
	leaq	-1(%rdx), %rcx
	leaq	fmbuff_(%rip), %rdx
	movzbl	(%rcx,%rdx), %edx
	cmpb	$32, %dl
	setne	%dl
	movzbl	%dl, %ecx
	movl	-48(%rbp), %edx
	cmpl	%edx, -20(%rbp)
	sete	%dl
	movzbl	%dl, %edx
	orl	%ecx, %edx
	testl	%edx, %edx
	je	.L134
	movl	-40(%rbp), %eax
	subl	-20(%rbp), %eax
	movl	%eax, -44(%rbp)
	leaq	.LC1(%rip), %rax
	movq	%rax, -568(%rbp)
	movl	$7396, -560(%rbp)
	leaq	.LC10(%rip), %rax
	movq	%rax, -496(%rbp)
	movq	$9, -488(%rbp)
	movl	$4096, -576(%rbp)
	movl	20+fmuser_(%rip), %eax
	movl	%eax, -572(%rbp)
	leaq	-576(%rbp), %rax
	movq	%rax, %rdi
	call	_gfortran_st_write@PLT
	movl	-44(%rbp), %ebx
	movl	$1, -24(%rbp)
.L136:
	movl	-576(%rbp), %eax
	andl	$3, %eax
	andl	$1, %eax
	testb	%al, %al
	jne	.L141
	cmpl	%ebx, -24(%rbp)
	setg	%al
	movzbl	%al, %eax
	testl	%eax, %eax
	jne	.L141
	movl	-24(%rbp), %eax
	cltq
	leaq	-1(%rax), %rdx
	leaq	fmbuff_(%rip), %rax
	leaq	(%rdx,%rax), %rcx
	leaq	-576(%rbp), %rax
	movl	$1, %edx
	movq	%rcx, %rsi
	movq	%rax, %rdi
	call	_gfortran_transfer_character_write@PLT
	addl	$1, -24(%rbp)
	jmp	.L136
.L141:
	nop
	leaq	-576(%rbp), %rax
	movq	%rax, %rdi
	call	_gfortran_st_write_done@PLT
	jmp	.L131
.L134:
	addl	$1, -20(%rbp)
	jmp	.L138
.L140:
	nop
	nop
.L131:
	addq	$584, %rsp
	popq	%rbx
	popq	%rbp
	.cfi_def_cfa 7, 8
	ret
	.cfi_endproc
.LFE2:
	.size	fmprnt_, .-fmprnt_
	.section	.rodata
	.align 4
.LC11:
	.long	2
	.text
	.globl	fmsub_
	.type	fmsub_, @function
fmsub_:
.LFB3:
	.cfi_startproc
	pushq	%rbp
	.cfi_def_cfa_offset 16
	.cfi_offset 6, -16
	movq	%rsp, %rbp
	.cfi_def_cfa_register 6
	subq	$48, %rsp
	movq	%rdi, -24(%rbp)
	movq	%rsi, -32(%rbp)
	movq	%rdx, -40(%rbp)
	movl	2616+fm_(%rip), %eax
	addl	$1, %eax
	movl	%eax, 2616+fm_(%rip)
	movl	2616+fm_(%rip), %eax
	cltq
	subq	$1, %rax
	addq	$665, %rax
	leaq	0(,%rax,4), %rdx
	leaq	fm_(%rip), %rax
	movl	$40, (%rdx,%rax)
	movl	24+fmuser_(%rip), %eax
	testl	%eax, %eax
	je	.L143
	movq	-32(%rbp), %rdx
	movq	-24(%rbp), %rax
	leaq	.LC11(%rip), %rcx
	movq	%rax, %rsi
	leaq	.LC11(%rip), %rdi
	call	fmntr_
.L143:
	movl	$0, -4(%rbp)
	movq	-32(%rbp), %rax
	movl	(%rax), %edx
	movq	-24(%rbp), %rax
	movl	(%rax), %eax
	cmpl	%eax, %edx
	setg	%al
	movzbl	%al, %edx
	movq	-24(%rbp), %rax
	movl	4(%rax), %eax
	testl	%eax, %eax
	sete	%al
	movzbl	%al, %eax
	orl	%edx, %eax
	testl	%eax, %eax
	je	.L144
	movl	$1, -4(%rbp)
.L144:
	movq	-32(%rbp), %rax
	movl	4(%rax), %eax
	testl	%eax, %eax
	jne	.L145
	movl	$0, -4(%rbp)
.L145:
	movq	-32(%rbp), %rax
	movl	4(%rax), %eax
	movl	%eax, -8(%rbp)
	movq	-32(%rbp), %rax
	movl	4(%rax), %eax
	negl	%eax
	movl	%eax, %edx
	movq	-32(%rbp), %rax
	movl	%edx, 4(%rax)
	movq	-40(%rbp), %rdx
	movq	-32(%rbp), %rcx
	movq	-24(%rbp), %rax
	movq	%rcx, %rsi
	movq	%rax, %rdi
	call	fmadd2_
	movq	-32(%rbp), %rax
	movl	4(%rax), %edx
	movq	-40(%rbp), %rax
	movl	4(%rax), %eax
	cmpl	%eax, %edx
	je	.L146
	movq	-32(%rbp), %rax
	movl	-8(%rbp), %edx
	movl	%edx, 4(%rax)
	jmp	.L147
.L146:
	movq	-32(%rbp), %rax
	movl	4(%rax), %edx
	movq	-40(%rbp), %rax
	movl	4(%rax), %eax
	addl	%edx, %eax
	movl	%eax, %edx
	shrl	$31, %edx
	addl	%edx, %eax
	sarl	%eax
	movl	%eax, -12(%rbp)
	movq	-32(%rbp), %rax
	movl	-8(%rbp), %edx
	movl	%edx, 4(%rax)
	movq	-40(%rbp), %rax
	movl	-12(%rbp), %edx
	movl	%edx, 4(%rax)
.L147:
	movl	32+fmuser_(%rip), %eax
	cmpl	$1, %eax
	sete	%al
	movzbl	%al, %edx
	cmpl	$1, -4(%rbp)
	sete	%al
	movzbl	%al, %eax
	andl	%edx, %eax
	testl	%eax, %eax
	je	.L148
	movl	$0, 32+fmuser_(%rip)
.L148:
	movl	24+fmuser_(%rip), %eax
	testl	%eax, %eax
	je	.L149
	movq	-40(%rbp), %rdx
	movq	-40(%rbp), %rax
	leaq	.LC6(%rip), %rcx
	movq	%rax, %rsi
	leaq	.LC6(%rip), %rdi
	call	fmntr_
.L149:
	movl	2616+fm_(%rip), %eax
	subl	$1, %eax
	movl	%eax, 2616+fm_(%rip)
	nop
	leave
	.cfi_def_cfa 7, 8
	ret
	.cfi_endproc
.LFE3:
	.size	fmsub_, .-fmsub_
	.globl	fmdiv_
	.type	fmdiv_, @function
fmdiv_:
.LFB4:
	.cfi_startproc
	pushq	%rbp
	.cfi_def_cfa_offset 16
	.cfi_offset 6, -16
	movq	%rsp, %rbp
	.cfi_def_cfa_register 6
	subq	$32, %rsp
	movq	%rdi, -8(%rbp)
	movq	%rsi, -16(%rbp)
	movq	%rdx, -24(%rbp)
	movl	2616+fm_(%rip), %eax
	addl	$1, %eax
	movl	%eax, 2616+fm_(%rip)
	movl	2616+fm_(%rip), %eax
	cltq
	subq	$1, %rax
	addq	$665, %rax
	leaq	0(,%rax,4), %rdx
	leaq	fm_(%rip), %rax
	movl	$12, (%rdx,%rax)
	movl	24+fmuser_(%rip), %eax
	testl	%eax, %eax
	je	.L152
	movq	-16(%rbp), %rdx
	movq	-8(%rbp), %rax
	leaq	.LC11(%rip), %rcx
	movq	%rax, %rsi
	leaq	.LC11(%rip), %rdi
	call	fmntr_
.L152:
	movq	-24(%rbp), %rdx
	movq	-16(%rbp), %rcx
	movq	-8(%rbp), %rax
	movq	%rcx, %rsi
	movq	%rax, %rdi
	call	fmdiv2_
	movl	24+fmuser_(%rip), %eax
	testl	%eax, %eax
	je	.L153
	movq	-24(%rbp), %rdx
	movq	-24(%rbp), %rax
	leaq	.LC6(%rip), %rcx
	movq	%rax, %rsi
	leaq	.LC6(%rip), %rdi
	call	fmntr_
.L153:
	movl	2616+fm_(%rip), %eax
	subl	$1, %eax
	movl	%eax, 2616+fm_(%rip)
	nop
	leave
	.cfi_def_cfa 7, 8
	ret
	.cfi_endproc
.LFE4:
	.size	fmdiv_, .-fmdiv_
	.globl	fmmpy_
	.type	fmmpy_, @function
fmmpy_:
.LFB5:
	.cfi_startproc
	pushq	%rbp
	.cfi_def_cfa_offset 16
	.cfi_offset 6, -16
	movq	%rsp, %rbp
	.cfi_def_cfa_register 6
	subq	$32, %rsp
	movq	%rdi, -8(%rbp)
	movq	%rsi, -16(%rbp)
	movq	%rdx, -24(%rbp)
	movl	2616+fm_(%rip), %eax
	addl	$1, %eax
	movl	%eax, 2616+fm_(%rip)
	movl	2616+fm_(%rip), %eax
	cltq
	subq	$1, %rax
	addq	$665, %rax
	leaq	0(,%rax,4), %rdx
	leaq	fm_(%rip), %rax
	movl	$29, (%rdx,%rax)
	movl	24+fmuser_(%rip), %eax
	testl	%eax, %eax
	je	.L156
	movq	-16(%rbp), %rdx
	movq	-8(%rbp), %rax
	leaq	.LC11(%rip), %rcx
	movq	%rax, %rsi
	leaq	.LC11(%rip), %rdi
	call	fmntr_
.L156:
	movq	-24(%rbp), %rdx
	movq	-16(%rbp), %rcx
	movq	-8(%rbp), %rax
	movq	%rcx, %rsi
	movq	%rax, %rdi
	call	fmmpy2_
	movl	24+fmuser_(%rip), %eax
	testl	%eax, %eax
	je	.L157
	movq	-24(%rbp), %rdx
	movq	-24(%rbp), %rax
	leaq	.LC6(%rip), %rcx
	movq	%rax, %rsi
	leaq	.LC6(%rip), %rdi
	call	fmntr_
.L157:
	movl	2616+fm_(%rip), %eax
	subl	$1, %eax
	movl	%eax, 2616+fm_(%rip)
	nop
	leave
	.cfi_def_cfa 7, 8
	ret
	.cfi_endproc
.LFE5:
	.size	fmmpy_, .-fmmpy_
	.globl	fmadd_
	.type	fmadd_, @function
fmadd_:
.LFB6:
	.cfi_startproc
	pushq	%rbp
	.cfi_def_cfa_offset 16
	.cfi_offset 6, -16
	movq	%rsp, %rbp
	.cfi_def_cfa_register 6
	subq	$32, %rsp
	movq	%rdi, -8(%rbp)
	movq	%rsi, -16(%rbp)
	movq	%rdx, -24(%rbp)
	movl	2616+fm_(%rip), %eax
	addl	$1, %eax
	movl	%eax, 2616+fm_(%rip)
	movl	2616+fm_(%rip), %eax
	cltq
	subq	$1, %rax
	addq	$665, %rax
	leaq	0(,%rax,4), %rdx
	leaq	fm_(%rip), %rax
	movl	$3, (%rdx,%rax)
	movl	24+fmuser_(%rip), %eax
	testl	%eax, %eax
	je	.L160
	movq	-16(%rbp), %rdx
	movq	-8(%rbp), %rax
	leaq	.LC11(%rip), %rcx
	movq	%rax, %rsi
	leaq	.LC11(%rip), %rdi
	call	fmntr_
.L160:
	movq	-24(%rbp), %rdx
	movq	-16(%rbp), %rcx
	movq	-8(%rbp), %rax
	movq	%rcx, %rsi
	movq	%rax, %rdi
	call	fmadd2_
	movl	24+fmuser_(%rip), %eax
	testl	%eax, %eax
	je	.L161
	movq	-24(%rbp), %rdx
	movq	-24(%rbp), %rax
	leaq	.LC6(%rip), %rcx
	movq	%rax, %rsi
	leaq	.LC6(%rip), %rdi
	call	fmntr_
.L161:
	movl	2616+fm_(%rip), %eax
	subl	$1, %eax
	movl	%eax, 2616+fm_(%rip)
	nop
	leave
	.cfi_def_cfa 7, 8
	ret
	.cfi_endproc
.LFE6:
	.size	fmadd_, .-fmadd_
	.globl	fmi2m_
	.type	fmi2m_, @function
fmi2m_:
.LFB7:
	.cfi_startproc
	pushq	%rbp
	.cfi_def_cfa_offset 16
	.cfi_offset 6, -16
	movq	%rsp, %rbp
	.cfi_def_cfa_register 6
	subq	$16, %rsp
	movq	%rdi, -8(%rbp)
	movq	%rsi, -16(%rbp)
	movl	2616+fm_(%rip), %eax
	addl	$1, %eax
	movl	%eax, 2616+fm_(%rip)
	movl	2616+fm_(%rip), %eax
	cltq
	subq	$1, %rax
	addq	$665, %rax
	leaq	0(,%rax,4), %rdx
	leaq	fm_(%rip), %rax
	movl	$16, (%rdx,%rax)
	movl	24+fmuser_(%rip), %eax
	testl	%eax, %eax
	je	.L164
	movq	-8(%rbp), %rax
	leaq	.LC6(%rip), %rdx
	movq	%rax, %rsi
	leaq	.LC11(%rip), %rdi
	call	fmntri_
.L164:
	movq	-16(%rbp), %rdx
	movq	-8(%rbp), %rax
	movq	%rdx, %rsi
	movq	%rax, %rdi
	call	fmim_
	movl	24+fmuser_(%rip), %eax
	testl	%eax, %eax
	je	.L165
	movq	-16(%rbp), %rdx
	movq	-16(%rbp), %rax
	leaq	.LC6(%rip), %rcx
	movq	%rax, %rsi
	leaq	.LC6(%rip), %rdi
	call	fmntr_
.L165:
	movl	2616+fm_(%rip), %eax
	subl	$1, %eax
	movl	%eax, 2616+fm_(%rip)
	nop
	leave
	.cfi_def_cfa 7, 8
	ret
	.cfi_endproc
.LFE7:
	.size	fmi2m_, .-fmi2m_
	.globl	fmdp2m_
	.type	fmdp2m_, @function
fmdp2m_:
.LFB8:
	.cfi_startproc
	pushq	%rbp
	.cfi_def_cfa_offset 16
	.cfi_offset 6, -16
	movq	%rsp, %rbp
	.cfi_def_cfa_register 6
	subq	$16, %rsp
	movq	%rdi, -8(%rbp)
	movq	%rsi, -16(%rbp)
	movl	2616+fm_(%rip), %eax
	addl	$1, %eax
	movl	%eax, 2616+fm_(%rip)
	movl	2616+fm_(%rip), %eax
	cltq
	subq	$1, %rax
	addq	$665, %rax
	leaq	0(,%rax,4), %rdx
	leaq	fm_(%rip), %rax
	movl	$14, (%rdx,%rax)
	movl	24+fmuser_(%rip), %eax
	testl	%eax, %eax
	je	.L168
	movq	-8(%rbp), %rax
	leaq	.LC6(%rip), %rdx
	movq	%rax, %rsi
	leaq	.LC11(%rip), %rdi
	call	fmntrr_
.L168:
	movq	-16(%rbp), %rdx
	movq	-8(%rbp), %rax
	movq	%rdx, %rsi
	movq	%rax, %rdi
	call	fmdm_
	movl	24+fmuser_(%rip), %eax
	testl	%eax, %eax
	je	.L169
	movq	-16(%rbp), %rdx
	movq	-16(%rbp), %rax
	leaq	.LC6(%rip), %rcx
	movq	%rax, %rsi
	leaq	.LC6(%rip), %rdi
	call	fmntr_
.L169:
	movl	2616+fm_(%rip), %eax
	subl	$1, %eax
	movl	%eax, 2616+fm_(%rip)
	nop
	leave
	.cfi_def_cfa 7, 8
	ret
	.cfi_endproc
.LFE8:
	.size	fmdp2m_, .-fmdp2m_
	.globl	fmdig_
	.type	fmdig_, @function
fmdig_:
.LFB9:
	.cfi_startproc
	pushq	%rbp
	.cfi_def_cfa_offset 16
	.cfi_offset 6, -16
	movq	%rsp, %rbp
	.cfi_def_cfa_register 6
	movq	%rdi, -72(%rbp)
	movq	%rsi, -80(%rbp)
	movl	4+fmuser_(%rip), %eax
	cvtsi2sdl	%eax, %xmm0
	movsd	%xmm0, -32(%rbp)
	movsd	.LC12(%rip), %xmm0
	movsd	%xmm0, -40(%rbp)
	movsd	-40(%rbp), %xmm0
	movsd	%xmm0, -24(%rbp)
	movl	$1, -16(%rbp)
.L174:
	movsd	-24(%rbp), %xmm0
	divsd	-32(%rbp), %xmm0
	movsd	%xmm0, -24(%rbp)
	movsd	-40(%rbp), %xmm0
	addsd	-24(%rbp), %xmm0
	movsd	%xmm0, -48(%rbp)
	movsd	-48(%rbp), %xmm0
	comisd	-40(%rbp), %xmm0
	jbe	.L181
	addl	$1, -16(%rbp)
	jmp	.L174
.L181:
	movq	-80(%rbp), %rax
	movl	$1, (%rax)
	movl	fmuser_(%rip), %eax
	movl	%eax, -8(%rbp)
	movq	-72(%rbp), %rax
	movl	-8(%rbp), %edx
	movl	%edx, (%rax)
	movl	-16(%rbp), %eax
	addl	%eax, %eax
	cmpl	%eax, -8(%rbp)
	setl	%al
	movzbl	%al, %edx
	cmpl	$2, -8(%rbp)
	setle	%al
	movzbl	%al, %eax
	orl	%edx, %eax
	testl	%eax, %eax
	jne	.L171
.L175:
	cvtsi2sdl	-8(%rbp), %xmm0
	movsd	%xmm0, -24(%rbp)
	movsd	-24(%rbp), %xmm0
	movsd	.LC13(%rip), %xmm1
	divsd	%xmm1, %xmm0
	cvttsd2sil	%xmm0, %eax
	movl	%eax, -12(%rbp)
	movl	-12(%rbp), %eax
	addl	%eax, %eax
	cmpl	%eax, -8(%rbp)
	jl	.L177
	addl	$1, -12(%rbp)
.L177:
	movl	-12(%rbp), %eax
	movl	%eax, -8(%rbp)
	movq	-80(%rbp), %rax
	movl	(%rax), %eax
	leal	1(%rax), %edx
	movq	-80(%rbp), %rax
	movl	%edx, (%rax)
	movq	-80(%rbp), %rax
	movl	(%rax), %eax
	cltq
	leaq	-1(%rax), %rcx
	movq	-72(%rbp), %rax
	movl	-8(%rbp), %edx
	movl	%edx, (%rax,%rcx,4)
	movl	-16(%rbp), %eax
	addl	%eax, %eax
	cmpl	%eax, -8(%rbp)
	setge	%al
	movzbl	%al, %edx
	cmpl	$2, -8(%rbp)
	setg	%al
	movzbl	%al, %eax
	andl	%edx, %eax
	testl	%eax, %eax
	jne	.L175
	movq	-80(%rbp), %rax
	movl	(%rax), %eax
	movl	%eax, %edx
	shrl	$31, %edx
	addl	%edx, %eax
	sarl	%eax
	movl	%eax, -52(%rbp)
	movl	-52(%rbp), %ecx
	movl	$1, -4(%rbp)
.L179:
	cmpl	%ecx, -4(%rbp)
	setg	%al
	movzbl	%al, %eax
	testl	%eax, %eax
	jne	.L182
	movl	-4(%rbp), %eax
	cltq
	leaq	-1(%rax), %rdx
	movq	-72(%rbp), %rax
	movl	(%rax,%rdx,4), %eax
	movl	%eax, -56(%rbp)
	movq	-80(%rbp), %rax
	movl	(%rax), %eax
	addl	$1, %eax
	subl	-4(%rbp), %eax
	cltq
	leaq	-1(%rax), %rdx
	movl	-4(%rbp), %eax
	cltq
	leaq	-1(%rax), %rsi
	movq	-72(%rbp), %rax
	movl	(%rax,%rdx,4), %edx
	movq	-72(%rbp), %rax
	movl	%edx, (%rax,%rsi,4)
	movq	-80(%rbp), %rax
	movl	(%rax), %eax
	addl	$1, %eax
	subl	-4(%rbp), %eax
	cltq
	leaq	-1(%rax), %rsi
	movq	-72(%rbp), %rax
	movl	-56(%rbp), %edx
	movl	%edx, (%rax,%rsi,4)
	addl	$1, -4(%rbp)
	jmp	.L179
.L182:
	nop
	nop
.L171:
	popq	%rbp
	.cfi_def_cfa 7, 8
	ret
	.cfi_endproc
.LFE9:
	.size	fmdig_, .-fmdig_
	.globl	fpset_
	.type	fpset_, @function
fpset_:
.LFB10:
	.cfi_startproc
	pushq	%rbp
	.cfi_def_cfa_offset 16
	.cfi_offset 6, -16
	movq	%rsp, %rbp
	.cfi_def_cfa_register 6
	subq	$16, %rsp
	movq	%rdi, -8(%rbp)
	movq	-8(%rbp), %rax
	movq	%rax, %rdi
	call	fmset_
	nop
	leave
	.cfi_def_cfa 7, 8
	ret
	.cfi_endproc
.LFE10:
	.size	fpset_, .-fpset_
	.globl	fmpack_
	.type	fmpack_, @function
fmpack_:
.LFB11:
	.cfi_startproc
	pushq	%rbp
	.cfi_def_cfa_offset 16
	.cfi_offset 6, -16
	movq	%rsp, %rbp
	.cfi_def_cfa_register 6
	movq	%rdi, -24(%rbp)
	movq	%rsi, -32(%rbp)
	movl	$2, -8(%rbp)
	movq	-24(%rbp), %rax
	movl	(%rax), %edx
	movq	-32(%rbp), %rax
	movl	%edx, (%rax)
	movq	-24(%rbp), %rax
	movl	4(%rax), %eax
	cltd
	xorl	%edx, %eax
	subl	%edx, %eax
	movl	4+fmuser_(%rip), %edx
	imull	%eax, %edx
	movq	-24(%rbp), %rax
	movl	8(%rax), %eax
	addl	%eax, %edx
	movq	-32(%rbp), %rax
	movl	%edx, 4(%rax)
	movq	-24(%rbp), %rax
	movl	4(%rax), %eax
	testl	%eax, %eax
	jns	.L186
	movq	-32(%rbp), %rax
	movl	4(%rax), %eax
	negl	%eax
	movl	%eax, %edx
	movq	-32(%rbp), %rax
	movl	%edx, 4(%rax)
.L186:
	movl	fmuser_(%rip), %eax
	cmpl	$3, %eax
	jle	.L187
	movl	fmuser_(%rip), %edx
	movl	$4, -4(%rbp)
	movl	%edx, %eax
	subl	$4, %eax
	shrl	%eax
	cmpl	$3, %edx
	jle	.L192
.L189:
	addl	$1, -8(%rbp)
	movl	-4(%rbp), %edx
	movslq	%edx, %rdx
	leaq	-1(%rdx), %rcx
	movq	-24(%rbp), %rdx
	movl	(%rdx,%rcx,4), %ecx
	movl	4+fmuser_(%rip), %edx
	movl	%ecx, %esi
	imull	%edx, %esi
	movl	-4(%rbp), %edx
	addl	$1, %edx
	movslq	%edx, %rdx
	leaq	-1(%rdx), %rcx
	movq	-24(%rbp), %rdx
	movl	(%rdx,%rcx,4), %edx
	movl	-8(%rbp), %ecx
	movslq	%ecx, %rcx
	subq	$1, %rcx
	addl	%edx, %esi
	movq	-32(%rbp), %rdx
	movl	%esi, (%rdx,%rcx,4)
	addl	$2, -4(%rbp)
	movl	%eax, %edx
	subl	$1, %eax
	testl	%edx, %edx
	je	.L192
	jmp	.L189
.L192:
	nop
.L187:
	movl	fmuser_(%rip), %eax
	cltd
	shrl	$31, %edx
	addl	%edx, %eax
	andl	$1, %eax
	subl	%edx, %eax
	cmpl	$1, %eax
	jne	.L193
	movl	fmuser_(%rip), %eax
	addl	$1, %eax
	cltq
	leaq	-1(%rax), %rdx
	movq	-24(%rbp), %rax
	movl	(%rax,%rdx,4), %edx
	movl	4+fmuser_(%rip), %eax
	movl	-8(%rbp), %ecx
	addl	$1, %ecx
	movslq	%ecx, %rcx
	subq	$1, %rcx
	imull	%eax, %edx
	movq	-32(%rbp), %rax
	movl	%edx, (%rax,%rcx,4)
	nop
.L193:
	nop
	popq	%rbp
	.cfi_def_cfa 7, 8
	ret
	.cfi_endproc
.LFE11:
	.size	fmpack_, .-fmpack_
	.globl	fmulp_
	.type	fmulp_, @function
fmulp_:
.LFB12:
	.cfi_startproc
	pushq	%rbp
	.cfi_def_cfa_offset 16
	.cfi_offset 6, -16
	movq	%rsp, %rbp
	.cfi_def_cfa_register 6
	subq	$32, %rsp
	movq	%rdi, -24(%rbp)
	movq	%rsi, -32(%rbp)
	movl	$0, 32+fmuser_(%rip)
	movl	2616+fm_(%rip), %eax
	addl	$1, %eax
	movl	%eax, 2616+fm_(%rip)
	movl	2616+fm_(%rip), %eax
	cltq
	subq	$1, %rax
	addq	$665, %rax
	leaq	0(,%rax,4), %rdx
	leaq	fm_(%rip), %rax
	movl	$43, (%rdx,%rax)
	movl	24+fmuser_(%rip), %eax
	testl	%eax, %eax
	je	.L195
	movq	-24(%rbp), %rdx
	movq	-24(%rbp), %rax
	leaq	.LC6(%rip), %rcx
	movq	%rax, %rsi
	leaq	.LC11(%rip), %rdi
	call	fmntr_
.L195:
	movq	-24(%rbp), %rax
	movl	(%rax), %eax
	movl	%eax, -8(%rbp)
	movl	fmuser_(%rip), %eax
	addl	$1, %eax
	movl	%eax, -12(%rbp)
	movl	-12(%rbp), %eax
	movl	$3, -4(%rbp)
.L197:
	cmpl	%eax, -4(%rbp)
	setg	%dl
	movzbl	%dl, %edx
	testl	%edx, %edx
	jne	.L204
	movl	-4(%rbp), %edx
	movslq	%edx, %rdx
	subq	$1, %rdx
	leaq	0(,%rdx,4), %rcx
	leaq	fm_(%rip), %rdx
	movl	$0, (%rcx,%rdx)
	addl	$1, -4(%rbp)
	jmp	.L197
.L204:
	nop
	movl	$1, 4+fm_(%rip)
	movq	-24(%rbp), %rax
	movl	4(%rax), %eax
	testl	%eax, %eax
	jns	.L198
	movl	$-1, 4+fm_(%rip)
.L198:
	movq	-24(%rbp), %rax
	movl	(%rax), %edx
	movl	fmuser_(%rip), %eax
	subl	%eax, %edx
	movl	%edx, %eax
	addl	$1, %eax
	movl	%eax, fm_(%rip)
	movq	-24(%rbp), %rax
	movl	4(%rax), %eax
	testl	%eax, %eax
	sete	%al
	movzbl	%al, %edx
	movq	-24(%rbp), %rax
	movl	(%rax), %ecx
	movl	2636+fm_(%rip), %eax
	cmpl	%eax, %ecx
	setge	%al
	movzbl	%al, %eax
	orl	%edx, %eax
	testl	%eax, %eax
	je	.L199
	movq	-32(%rbp), %rax
	movq	%rax, %rsi
	leaq	.LC5(%rip), %rdi
	call	fmim_
	movl	2640+fm_(%rip), %edx
	movq	-32(%rbp), %rax
	movl	%edx, (%rax)
	movq	-32(%rbp), %rax
	movl	$1, 4(%rax)
	movl	$-4, 32+fmuser_(%rip)
	movl	2640+fm_(%rip), %eax
	cmpl	%eax, -8(%rbp)
	je	.L200
	call	fmwarn_
	jmp	.L200
.L199:
	movl	36+fmuser_(%rip), %eax
	movl	%eax, -16(%rbp)
	movl	2632+fm_(%rip), %eax
	cmpl	%eax, -8(%rbp)
	jne	.L201
	movl	$0, 36+fmuser_(%rip)
.L201:
	movq	-32(%rbp), %rax
	movq	%rax, %rdi
	call	fmmove_
	movl	-16(%rbp), %eax
	movl	%eax, 36+fmuser_(%rip)
.L200:
	movl	24+fmuser_(%rip), %eax
	testl	%eax, %eax
	je	.L202
	movq	-32(%rbp), %rdx
	movq	-32(%rbp), %rax
	leaq	.LC6(%rip), %rcx
	movq	%rax, %rsi
	leaq	.LC6(%rip), %rdi
	call	fmntr_
.L202:
	movl	2616+fm_(%rip), %eax
	subl	$1, %eax
	movl	%eax, 2616+fm_(%rip)
	nop
	leave
	.cfi_def_cfa 7, 8
	ret
	.cfi_endproc
.LFE12:
	.size	fmulp_, .-fmulp_
	.globl	fmunpk_
	.type	fmunpk_, @function
fmunpk_:
.LFB13:
	.cfi_startproc
	pushq	%rbp
	.cfi_def_cfa_offset 16
	.cfi_offset 6, -16
	movq	%rsp, %rbp
	.cfi_def_cfa_register 6
	movq	%rdi, -24(%rbp)
	movq	%rsi, -32(%rbp)
	movl	$2, -8(%rbp)
	movq	-24(%rbp), %rax
	movl	(%rax), %edx
	movq	-32(%rbp), %rax
	movl	%edx, (%rax)
	movq	-24(%rbp), %rax
	movl	4(%rax), %eax
	cltd
	xorl	%edx, %eax
	subl	%edx, %eax
	movl	4+fmuser_(%rip), %edi
	cltd
	idivl	%edi
	movl	%eax, %edx
	movq	-32(%rbp), %rax
	movl	%edx, 4(%rax)
	movq	-24(%rbp), %rax
	movl	4(%rax), %eax
	cltd
	xorl	%edx, %eax
	subl	%edx, %eax
	movl	4+fmuser_(%rip), %ecx
	cltd
	idivl	%ecx
	movq	-32(%rbp), %rax
	movl	%edx, 8(%rax)
	movq	-24(%rbp), %rax
	movl	4(%rax), %eax
	testl	%eax, %eax
	jns	.L206
	movq	-32(%rbp), %rax
	movl	4(%rax), %eax
	negl	%eax
	movl	%eax, %edx
	movq	-32(%rbp), %rax
	movl	%edx, 4(%rax)
.L206:
	movl	fmuser_(%rip), %eax
	cmpl	$3, %eax
	jle	.L207
	movl	fmuser_(%rip), %eax
	movl	$4, -4(%rbp)
	movl	%eax, %edx
	subl	$4, %edx
	movl	%edx, %ecx
	shrl	%ecx
	cmpl	$3, %eax
	jle	.L212
.L209:
	addl	$1, -8(%rbp)
	movl	-8(%rbp), %eax
	cltq
	leaq	-1(%rax), %rdx
	movq	-24(%rbp), %rax
	movl	(%rax,%rdx,4), %eax
	movl	4+fmuser_(%rip), %edi
	movl	-4(%rbp), %esi
	movslq	%esi, %rsi
	subq	$1, %rsi
	cltd
	idivl	%edi
	movl	%eax, %edx
	movq	-32(%rbp), %rax
	movl	%edx, (%rax,%rsi,4)
	movl	-8(%rbp), %eax
	cltq
	leaq	-1(%rax), %rdx
	movq	-24(%rbp), %rax
	movl	(%rax,%rdx,4), %eax
	movl	4+fmuser_(%rip), %edi
	movl	-4(%rbp), %edx
	addl	$1, %edx
	movslq	%edx, %rdx
	leaq	-1(%rdx), %rsi
	cltd
	idivl	%edi
	movq	-32(%rbp), %rax
	movl	%edx, (%rax,%rsi,4)
	addl	$2, -4(%rbp)
	movl	%ecx, %eax
	subl	$1, %ecx
	testl	%eax, %eax
	je	.L212
	jmp	.L209
.L212:
	nop
.L207:
	movl	fmuser_(%rip), %eax
	cltd
	shrl	$31, %edx
	addl	%edx, %eax
	andl	$1, %eax
	subl	%edx, %eax
	cmpl	$1, %eax
	jne	.L213
	movl	-8(%rbp), %eax
	addl	$1, %eax
	cltq
	leaq	-1(%rax), %rdx
	movq	-24(%rbp), %rax
	movl	(%rax,%rdx,4), %eax
	movl	4+fmuser_(%rip), %edi
	movl	fmuser_(%rip), %ecx
	addl	$1, %ecx
	movslq	%ecx, %rcx
	subq	$1, %rcx
	cltd
	idivl	%edi
	movl	%eax, %edx
	movq	-32(%rbp), %rax
	movl	%edx, (%rax,%rcx,4)
	nop
.L213:
	nop
	popq	%rbp
	.cfi_def_cfa 7, 8
	ret
	.cfi_endproc
.LFE13:
	.size	fmunpk_, .-fmunpk_
	.section	.rodata
	.align 4
.LC14:
	.long	42
	.align 4
.LC15:
	.long	-1
	.text
	.globl	fmtanh_
	.type	fmtanh_, @function
fmtanh_:
.LFB14:
	.cfi_startproc
	pushq	%rbp
	.cfi_def_cfa_offset 16
	.cfi_offset 6, -16
	movq	%rsp, %rbp
	.cfi_def_cfa_register 6
	subq	$48, %rsp
	movq	%rdi, -40(%rbp)
	movq	%rsi, -48(%rbp)
	leaq	-24(%rbp), %rdi
	movq	-48(%rbp), %rsi
	movq	-40(%rbp), %rdx
	movq	-40(%rbp), %rax
	leaq	-20(%rbp), %rcx
	pushq	%rcx
	leaq	-16(%rbp), %rcx
	pushq	%rcx
	leaq	-28(%rbp), %rcx
	pushq	%rcx
	leaq	-32(%rbp), %rcx
	pushq	%rcx
	movq	%rdi, %r9
	movq	%rsi, %r8
	leaq	.LC6(%rip), %rcx
	movq	%rax, %rsi
	leaq	.LC14(%rip), %rdi
	call	fmentr_
	addq	$32, %rsp
	movl	-24(%rbp), %eax
	testl	%eax, %eax
	jne	.L214
	movl	$0, 2628+fm_(%rip)
	movl	36+fmuser_(%rip), %eax
	movl	%eax, -4(%rbp)
	movl	$0, 36+fmuser_(%rip)
	movq	-40(%rbp), %rax
	movl	(%rax), %eax
	movl	%eax, -8(%rbp)
	movq	-40(%rbp), %rax
	movl	4(%rax), %eax
	movl	%eax, -12(%rbp)
	leaq	-32(%rbp), %rdx
	movq	-48(%rbp), %rsi
	movq	-40(%rbp), %rax
	leaq	fmuser_(%rip), %rcx
	movq	%rax, %rdi
	call	fmequ_
	movq	-48(%rbp), %rax
	movl	4(%rax), %eax
	cltd
	xorl	%edx, %eax
	subl	%edx, %eax
	movq	-48(%rbp), %rdx
	movl	%eax, 4(%rdx)
	movq	-48(%rbp), %rdx
	movq	-48(%rbp), %rax
	movq	%rdx, %rsi
	movq	%rax, %rdi
	call	fmexp_
	movq	-48(%rbp), %rax
	movl	(%rax), %edx
	movl	2636+fm_(%rip), %eax
	cmpl	%eax, %edx
	jne	.L217
	movq	-48(%rbp), %rax
	movq	%rax, %rsi
	leaq	.LC6(%rip), %rdi
	call	fmi2m_
	jmp	.L218
.L217:
	movq	-48(%rbp), %rax
	movl	(%rax), %edx
	movl	2632+fm_(%rip), %eax
	cmpl	%eax, %edx
	jne	.L219
	movq	-48(%rbp), %rax
	movq	%rax, %rsi
	leaq	.LC15(%rip), %rdi
	call	fmi2m_
	jmp	.L218
.L219:
	leaq	fm1_(%rip), %rsi
	leaq	.LC6(%rip), %rdi
	call	fmi2m_
	cmpl	$0, -8(%rbp)
	jle	.L220
	movq	-48(%rbp), %rax
	leaq	fm1_(%rip), %rdx
	movq	%rax, %rsi
	leaq	fm1_(%rip), %rdi
	call	fmdiv_
	movq	-48(%rbp), %rax
	leaq	1308+fm1_(%rip), %rdx
	leaq	fm1_(%rip), %rsi
	movq	%rax, %rdi
	call	fmsub_
	movq	-48(%rbp), %rax
	leaq	fm1_(%rip), %rdx
	leaq	fm1_(%rip), %rsi
	movq	%rax, %rdi
	call	fmadd_
	movq	-48(%rbp), %rax
	movq	%rax, %rdx
	leaq	fm1_(%rip), %rsi
	leaq	1308+fm1_(%rip), %rdi
	call	fmdiv_
	jmp	.L218
.L220:
	movq	-48(%rbp), %rax
	leaq	fm1_(%rip), %rdx
	leaq	fm1_(%rip), %rsi
	movq	%rax, %rdi
	call	fmadd_
	leaq	fm1_(%rip), %rdx
	leaq	fm1_(%rip), %rsi
	leaq	2616+fm1_(%rip), %rdi
	call	fmmpy_
	leaq	1308+fm1_(%rip), %rsi
	leaq	.LC11(%rip), %rdi
	call	fmi2m_
	movq	-48(%rbp), %rax
	movq	%rax, %rdx
	leaq	1308+fm1_(%rip), %rsi
	leaq	fm1_(%rip), %rdi
	call	fmadd_
	movq	-48(%rbp), %rdx
	movq	-48(%rbp), %rax
	movq	%rax, %rsi
	leaq	fm1_(%rip), %rdi
	call	fmdiv_
.L218:
	cmpl	$0, -12(%rbp)
	jns	.L221
	movq	-48(%rbp), %rax
	movl	4(%rax), %eax
	negl	%eax
	movl	%eax, %edx
	movq	-48(%rbp), %rax
	movl	%edx, 4(%rax)
.L221:
	movl	-4(%rbp), %eax
	movl	%eax, 36+fmuser_(%rip)
	leaq	-20(%rbp), %r8
	leaq	-16(%rbp), %rdi
	leaq	-28(%rbp), %rcx
	leaq	-32(%rbp), %rdx
	movq	-48(%rbp), %rsi
	movq	-48(%rbp), %rax
	movq	%r8, %r9
	movq	%rdi, %r8
	movq	%rax, %rdi
	call	fmexit_
	nop
.L214:
	leave
	.cfi_def_cfa 7, 8
	ret
	.cfi_endproc
.LFE14:
	.size	fmtanh_, .-fmtanh_
	.section	.rodata
	.align 4
.LC16:
	.long	41
	.align 4
.LC17:
	.long	180
	.text
	.globl	fmtan_
	.type	fmtan_, @function
fmtan_:
.LFB15:
	.cfi_startproc
	pushq	%rbp
	.cfi_def_cfa_offset 16
	.cfi_offset 6, -16
	movq	%rsp, %rbp
	.cfi_def_cfa_register 6
	subq	$64, %rsp
	movq	%rdi, -56(%rbp)
	movq	%rsi, -64(%rbp)
	leaq	-28(%rbp), %rdi
	movq	-64(%rbp), %rsi
	movq	-56(%rbp), %rdx
	movq	-56(%rbp), %rax
	leaq	-24(%rbp), %rcx
	pushq	%rcx
	leaq	-20(%rbp), %rcx
	pushq	%rcx
	leaq	-32(%rbp), %rcx
	pushq	%rcx
	leaq	-36(%rbp), %rcx
	pushq	%rcx
	movq	%rdi, %r9
	movq	%rsi, %r8
	leaq	.LC6(%rip), %rcx
	movq	%rax, %rsi
	leaq	.LC16(%rip), %rdi
	call	fmentr_
	addq	$32, %rsp
	movl	-28(%rbp), %eax
	testl	%eax, %eax
	jne	.L223
	leaq	-36(%rbp), %rdx
	movq	-64(%rbp), %rsi
	movq	-56(%rbp), %rax
	leaq	fmuser_(%rip), %rcx
	movq	%rax, %rdi
	call	fmequ_
	leaq	-16(%rbp), %rdi
	leaq	-8(%rbp), %rcx
	leaq	-12(%rbp), %rdx
	movq	-64(%rbp), %rsi
	movq	-64(%rbp), %rax
	movq	%rdi, %r8
	movq	%rax, %rdi
	call	fmrdc_
	movq	-64(%rbp), %rax
	movl	(%rax), %edx
	movl	2640+fm_(%rip), %eax
	cmpl	%eax, %edx
	je	.L226
	movq	-64(%rbp), %rax
	movl	4(%rax), %eax
	testl	%eax, %eax
	jne	.L227
	movl	-16(%rbp), %eax
	cmpl	$1, %eax
	jne	.L234
	movq	-64(%rbp), %rax
	movq	%rax, %rsi
	leaq	.LC5(%rip), %rdi
	call	fmim_
	movl	2640+fm_(%rip), %edx
	movq	-64(%rbp), %rax
	movl	%edx, (%rax)
	movq	-64(%rbp), %rax
	movl	$1, 4(%rax)
	movl	$-4, 32+fmuser_(%rip)
	call	fmwarn_
	jmp	.L234
.L227:
	movl	16+fmuser_(%rip), %eax
	testl	%eax, %eax
	jne	.L229
	movl	4+fmsave_(%rip), %edx
	movl	4+fmuser_(%rip), %eax
	cmpl	%eax, %edx
	setne	%al
	movzbl	%al, %edx
	movl	fmsave_(%rip), %ecx
	movl	fmuser_(%rip), %eax
	cmpl	%eax, %ecx
	setl	%al
	movzbl	%al, %eax
	orl	%edx, %eax
	testl	%eax, %eax
	je	.L230
	movl	fmuser_(%rip), %eax
	movl	%eax, -4(%rbp)
	movl	fmuser_(%rip), %eax
	leal	2(%rax), %edx
	movl	2656+fm_(%rip), %eax
	cmpl	%eax, %edx
	cmovle	%edx, %eax
	movl	%eax, fmuser_(%rip)
	leaq	32+fmsave_(%rip), %rdi
	call	fmpi2_
	movl	4+fmuser_(%rip), %eax
	movl	%eax, 4+fmsave_(%rip)
	movl	fmuser_(%rip), %eax
	movl	%eax, fmsave_(%rip)
	movl	-4(%rbp), %eax
	movl	%eax, fmuser_(%rip)
.L230:
	movq	-64(%rbp), %rdx
	movq	-64(%rbp), %rax
	leaq	32+fmsave_(%rip), %rsi
	movq	%rax, %rdi
	call	fmmpy_
	movq	-64(%rbp), %rdx
	movq	-64(%rbp), %rax
	leaq	.LC17(%rip), %rsi
	movq	%rax, %rdi
	call	fmdivi_
.L229:
	movq	-64(%rbp), %rax
	movl	(%rax), %edx
	movl	2640+fm_(%rip), %eax
	cmpl	%eax, %edx
	je	.L231
	movq	-64(%rbp), %rdx
	movq	-64(%rbp), %rax
	movq	%rdx, %rsi
	movq	%rax, %rdi
	call	fmsin2_
	movq	-64(%rbp), %rcx
	movq	-64(%rbp), %rax
	leaq	2616+fm1_(%rip), %rdx
	movq	%rcx, %rsi
	movq	%rax, %rdi
	call	fmmpy_
	leaq	1308+fm1_(%rip), %rsi
	leaq	.LC6(%rip), %rdi
	call	fmi2m_
	leaq	2616+fm1_(%rip), %rdx
	leaq	2616+fm1_(%rip), %rsi
	leaq	1308+fm1_(%rip), %rdi
	call	fmsub_
	leaq	2616+fm1_(%rip), %rsi
	leaq	2616+fm1_(%rip), %rdi
	call	fmsqrt_
	movl	-16(%rbp), %eax
	testl	%eax, %eax
	jne	.L232
	movq	-64(%rbp), %rdx
	movq	-64(%rbp), %rax
	leaq	2616+fm1_(%rip), %rsi
	movq	%rax, %rdi
	call	fmdiv_
	jmp	.L231
.L232:
	movq	-64(%rbp), %rdx
	movq	-64(%rbp), %rax
	movq	%rax, %rsi
	leaq	2616+fm1_(%rip), %rdi
	call	fmdiv_
.L231:
	movl	-12(%rbp), %edx
	movl	-8(%rbp), %eax
	imull	%edx, %eax
	cmpl	$-1, %eax
	jne	.L226
	movq	-64(%rbp), %rax
	movl	4(%rax), %eax
	negl	%eax
	movl	%eax, %edx
	movq	-64(%rbp), %rax
	movl	%edx, 4(%rax)
	jmp	.L226
.L234:
	nop
.L226:
	leaq	-24(%rbp), %r8
	leaq	-20(%rbp), %rdi
	leaq	-32(%rbp), %rcx
	leaq	-36(%rbp), %rdx
	movq	-64(%rbp), %rsi
	movq	-64(%rbp), %rax
	movq	%r8, %r9
	movq	%rdi, %r8
	movq	%rax, %rdi
	call	fmexit_
	nop
.L223:
	leave
	.cfi_def_cfa 7, 8
	ret
	.cfi_endproc
.LFE15:
	.size	fmtan_, .-fmtan_
	.section	.rodata
	.align 4
.LC18:
	.long	39
	.text
	.globl	fmsqrt_
	.type	fmsqrt_, @function
fmsqrt_:
.LFB16:
	.cfi_startproc
	pushq	%rbp
	.cfi_def_cfa_offset 16
	.cfi_offset 6, -16
	movq	%rsp, %rbp
	.cfi_def_cfa_register 6
	pushq	%rbx
	subq	$168, %rsp
	.cfi_offset 3, -24
	movq	%rdi, -168(%rbp)
	movq	%rsi, -176(%rbp)
	leaq	-52(%rbp), %rdi
	movq	-176(%rbp), %rsi
	movq	-168(%rbp), %rdx
	movq	-168(%rbp), %rax
	leaq	-48(%rbp), %rcx
	pushq	%rcx
	leaq	-44(%rbp), %rcx
	pushq	%rcx
	leaq	-60(%rbp), %rcx
	pushq	%rcx
	leaq	-64(%rbp), %rcx
	pushq	%rcx
	movq	%rdi, %r9
	movq	%rsi, %r8
	leaq	.LC6(%rip), %rcx
	movq	%rax, %rsi
	leaq	.LC18(%rip), %rdi
	call	fmentr_
	addq	$32, %rsp
	movl	-52(%rbp), %eax
	testl	%eax, %eax
	jne	.L235
	movq	-168(%rbp), %rax
	movl	(%rax), %eax
	movl	%eax, -28(%rbp)
	leaq	-64(%rbp), %rdx
	movq	-168(%rbp), %rax
	leaq	fmuser_(%rip), %rcx
	leaq	1308+fm1_(%rip), %rsi
	movq	%rax, %rdi
	call	fmequ_
	movl	$0, 1308+fm1_(%rip)
	leaq	-152(%rbp), %rax
	movq	%rax, %rsi
	leaq	1308+fm1_(%rip), %rdi
	call	fmm2dp_
	movsd	-152(%rbp), %xmm0
	sqrtsd	%xmm0, %xmm0
	movsd	%xmm0, -152(%rbp)
	movl	-28(%rbp), %eax
	movl	%eax, %edx
	shrl	$31, %edx
	addl	%edx, %eax
	sarl	%eax
	movl	%eax, -24(%rbp)
	movl	-28(%rbp), %eax
	cltd
	movl	%edx, %eax
	xorl	-28(%rbp), %eax
	subl	%edx, %eax
	andl	$1, %eax
	testl	%eax, %eax
	je	.L238
	movl	4+fmuser_(%rip), %eax
	cvtsi2sdl	%eax, %xmm0
	movsd	%xmm0, -40(%rbp)
	movsd	-40(%rbp), %xmm1
	sqrtsd	%xmm1, %xmm1
	movsd	-152(%rbp), %xmm0
	mulsd	%xmm1, %xmm0
	movsd	%xmm0, -152(%rbp)
	movl	-28(%rbp), %eax
	subl	$1, %eax
	movl	%eax, %edx
	shrl	$31, %edx
	addl	%edx, %eax
	sarl	%eax
	movl	%eax, -24(%rbp)
.L238:
	movq	-176(%rbp), %rdx
	leaq	-152(%rbp), %rax
	movq	%rdx, %rsi
	movq	%rax, %rdi
	call	fmdp2m_
	movq	-176(%rbp), %rax
	movl	(%rax), %edx
	movl	-24(%rbp), %eax
	addl	%eax, %edx
	movq	-176(%rbp), %rax
	movl	%edx, (%rax)
	movl	-28(%rbp), %eax
	movl	%eax, 1308+fm1_(%rip)
	leaq	-56(%rbp), %rdx
	leaq	-144(%rbp), %rax
	movq	%rdx, %rsi
	movq	%rax, %rdi
	call	fmdig_
	movl	-56(%rbp), %ebx
	movl	$1, -20(%rbp)
.L240:
	cmpl	%ebx, -20(%rbp)
	setg	%al
	movzbl	%al, %eax
	testl	%eax, %eax
	jne	.L242
	movl	-20(%rbp), %eax
	cltq
	subq	$1, %rax
	movl	-144(%rbp,%rax,4), %eax
	movl	%eax, fmuser_(%rip)
	movq	-176(%rbp), %rax
	leaq	fm1_(%rip), %rdx
	movq	%rax, %rsi
	leaq	1308+fm1_(%rip), %rdi
	call	fmdiv_
	movq	-176(%rbp), %rdx
	movq	-176(%rbp), %rax
	leaq	fm1_(%rip), %rsi
	movq	%rax, %rdi
	call	fmadd_
	movq	-176(%rbp), %rdx
	movq	-176(%rbp), %rax
	leaq	.LC11(%rip), %rsi
	movq	%rax, %rdi
	call	fmdivi_
	addl	$1, -20(%rbp)
	jmp	.L240
.L242:
	nop
	leaq	-48(%rbp), %r8
	leaq	-44(%rbp), %rdi
	leaq	-60(%rbp), %rcx
	leaq	-64(%rbp), %rdx
	movq	-176(%rbp), %rsi
	movq	-176(%rbp), %rax
	movq	%r8, %r9
	movq	%rdi, %r8
	movq	%rax, %rdi
	call	fmexit_
	nop
.L235:
	movq	-8(%rbp), %rbx
	leave
	.cfi_def_cfa 7, 8
	ret
	.cfi_endproc
.LFE16:
	.size	fmsqrt_, .-fmsqrt_
	.globl	fmsp2m_
	.type	fmsp2m_, @function
fmsp2m_:
.LFB17:
	.cfi_startproc
	pushq	%rbp
	.cfi_def_cfa_offset 16
	.cfi_offset 6, -16
	movq	%rsp, %rbp
	.cfi_def_cfa_register 6
	subq	$32, %rsp
	movq	%rdi, -24(%rbp)
	movq	%rsi, -32(%rbp)
	movl	2616+fm_(%rip), %eax
	addl	$1, %eax
	movl	%eax, 2616+fm_(%rip)
	movl	2616+fm_(%rip), %eax
	cltq
	subq	$1, %rax
	addq	$665, %rax
	leaq	0(,%rax,4), %rdx
	leaq	fm_(%rip), %rax
	movl	$38, (%rdx,%rax)
	movq	-24(%rbp), %rax
	movss	(%rax), %xmm0
	cvtss2sd	%xmm0, %xmm0
	movsd	%xmm0, -8(%rbp)
	movl	24+fmuser_(%rip), %eax
	testl	%eax, %eax
	je	.L244
	leaq	-8(%rbp), %rax
	leaq	.LC6(%rip), %rdx
	movq	%rax, %rsi
	leaq	.LC11(%rip), %rdi
	call	fmntrr_
.L244:
	movq	-32(%rbp), %rdx
	leaq	-8(%rbp), %rax
	movq	%rdx, %rsi
	movq	%rax, %rdi
	call	fmdm_
	movl	24+fmuser_(%rip), %eax
	testl	%eax, %eax
	je	.L245
	movq	-32(%rbp), %rdx
	movq	-32(%rbp), %rax
	leaq	.LC6(%rip), %rcx
	movq	%rax, %rsi
	leaq	.LC6(%rip), %rdi
	call	fmntr_
.L245:
	movl	2616+fm_(%rip), %eax
	subl	$1, %eax
	movl	%eax, 2616+fm_(%rip)
	nop
	leave
	.cfi_def_cfa 7, 8
	ret
	.cfi_endproc
.LFE17:
	.size	fmsp2m_, .-fmsp2m_
	.section	.rodata
	.align 4
.LC19:
	.long	37
	.text
	.globl	fmsinh_
	.type	fmsinh_, @function
fmsinh_:
.LFB18:
	.cfi_startproc
	pushq	%rbp
	.cfi_def_cfa_offset 16
	.cfi_offset 6, -16
	movq	%rsp, %rbp
	.cfi_def_cfa_register 6
	subq	$48, %rsp
	movq	%rdi, -40(%rbp)
	movq	%rsi, -48(%rbp)
	leaq	-24(%rbp), %rdi
	movq	-48(%rbp), %rsi
	movq	-40(%rbp), %rdx
	movq	-40(%rbp), %rax
	leaq	-20(%rbp), %rcx
	pushq	%rcx
	leaq	-16(%rbp), %rcx
	pushq	%rcx
	leaq	-28(%rbp), %rcx
	pushq	%rcx
	leaq	-32(%rbp), %rcx
	pushq	%rcx
	movq	%rdi, %r9
	movq	%rsi, %r8
	leaq	.LC6(%rip), %rcx
	movq	%rax, %rsi
	leaq	.LC19(%rip), %rdi
	call	fmentr_
	addq	$32, %rsp
	movl	-24(%rbp), %eax
	testl	%eax, %eax
	jne	.L247
	movq	-40(%rbp), %rax
	movl	(%rax), %eax
	movl	%eax, -4(%rbp)
	movq	-40(%rbp), %rax
	movl	4(%rax), %eax
	movl	%eax, -8(%rbp)
	leaq	-32(%rbp), %rdx
	movq	-48(%rbp), %rsi
	movq	-40(%rbp), %rax
	leaq	fmuser_(%rip), %rcx
	movq	%rax, %rdi
	call	fmequ_
	movq	-48(%rbp), %rax
	movl	4(%rax), %eax
	cltd
	xorl	%edx, %eax
	subl	%edx, %eax
	movq	-48(%rbp), %rdx
	movl	%eax, 4(%rdx)
	movl	$0, 2628+fm_(%rip)
	movl	36+fmuser_(%rip), %eax
	movl	%eax, -12(%rbp)
	movl	$0, 36+fmuser_(%rip)
	movq	-48(%rbp), %rdx
	movq	-48(%rbp), %rax
	movq	%rdx, %rsi
	movq	%rax, %rdi
	call	fmexp_
	movq	-48(%rbp), %rax
	movl	(%rax), %edx
	movl	2636+fm_(%rip), %eax
	cmpl	%eax, %edx
	je	.L257
	movq	-48(%rbp), %rax
	movl	(%rax), %edx
	movl	2632+fm_(%rip), %eax
	cmpl	%eax, %edx
	jne	.L252
	movl	2636+fm_(%rip), %edx
	movq	-48(%rbp), %rax
	movl	%edx, (%rax)
	movq	-48(%rbp), %rax
	movl	$-1, 4(%rax)
	jmp	.L251
.L252:
	leaq	fm1_(%rip), %rsi
	leaq	.LC6(%rip), %rdi
	call	fmi2m_
	cmpl	$0, -4(%rbp)
	jle	.L253
	movq	-48(%rbp), %rax
	leaq	fm1_(%rip), %rdx
	movq	%rax, %rsi
	leaq	fm1_(%rip), %rdi
	call	fmdiv_
	movq	-48(%rbp), %rdx
	movq	-48(%rbp), %rax
	leaq	fm1_(%rip), %rsi
	movq	%rax, %rdi
	call	fmsub_
	jmp	.L254
.L253:
	movq	-48(%rbp), %rax
	leaq	fm1_(%rip), %rdx
	leaq	fm1_(%rip), %rsi
	movq	%rax, %rdi
	call	fmadd_
	leaq	fm1_(%rip), %rdx
	leaq	fm1_(%rip), %rsi
	leaq	2616+fm1_(%rip), %rdi
	call	fmmpy_
	movq	-48(%rbp), %rdx
	movq	-48(%rbp), %rax
	movq	%rax, %rsi
	leaq	fm1_(%rip), %rdi
	call	fmdiv_
.L254:
	movq	-48(%rbp), %rdx
	movq	-48(%rbp), %rax
	leaq	.LC11(%rip), %rsi
	movq	%rax, %rdi
	call	fmdivi_
	jmp	.L251
.L257:
	nop
.L251:
	cmpl	$0, -8(%rbp)
	jns	.L255
	movq	-48(%rbp), %rax
	movl	4(%rax), %eax
	negl	%eax
	movl	%eax, %edx
	movq	-48(%rbp), %rax
	movl	%edx, 4(%rax)
.L255:
	movl	-12(%rbp), %eax
	movl	%eax, 36+fmuser_(%rip)
	leaq	-20(%rbp), %r8
	leaq	-16(%rbp), %rdi
	leaq	-28(%rbp), %rcx
	leaq	-32(%rbp), %rdx
	movq	-48(%rbp), %rsi
	movq	-48(%rbp), %rax
	movq	%r8, %r9
	movq	%rdi, %r8
	movq	%rax, %rdi
	call	fmexit_
	nop
.L247:
	leave
	.cfi_def_cfa 7, 8
	ret
	.cfi_endproc
.LFE18:
	.size	fmsinh_, .-fmsinh_
	.section	.rodata
	.align 4
.LC20:
	.long	36
	.text
	.globl	fmsin_
	.type	fmsin_, @function
fmsin_:
.LFB19:
	.cfi_startproc
	pushq	%rbp
	.cfi_def_cfa_offset 16
	.cfi_offset 6, -16
	movq	%rsp, %rbp
	.cfi_def_cfa_register 6
	subq	$64, %rsp
	movq	%rdi, -56(%rbp)
	movq	%rsi, -64(%rbp)
	leaq	-28(%rbp), %rdi
	movq	-64(%rbp), %rsi
	movq	-56(%rbp), %rdx
	movq	-56(%rbp), %rax
	leaq	-24(%rbp), %rcx
	pushq	%rcx
	leaq	-20(%rbp), %rcx
	pushq	%rcx
	leaq	-32(%rbp), %rcx
	pushq	%rcx
	leaq	-36(%rbp), %rcx
	pushq	%rcx
	movq	%rdi, %r9
	movq	%rsi, %r8
	leaq	.LC6(%rip), %rcx
	movq	%rax, %rsi
	leaq	.LC20(%rip), %rdi
	call	fmentr_
	addq	$32, %rsp
	movl	-28(%rbp), %eax
	testl	%eax, %eax
	jne	.L258
	leaq	-36(%rbp), %rdx
	movq	-64(%rbp), %rsi
	movq	-56(%rbp), %rax
	leaq	fmuser_(%rip), %rcx
	movq	%rax, %rdi
	call	fmequ_
	leaq	-16(%rbp), %rdi
	leaq	-8(%rbp), %rcx
	leaq	-12(%rbp), %rdx
	movq	-64(%rbp), %rsi
	movq	-64(%rbp), %rax
	movq	%rdi, %r8
	movq	%rax, %rdi
	call	fmrdc_
	movq	-64(%rbp), %rax
	movl	(%rax), %edx
	movl	2640+fm_(%rip), %eax
	cmpl	%eax, %edx
	je	.L261
	movl	16+fmuser_(%rip), %eax
	testl	%eax, %eax
	jne	.L262
	movl	4+fmsave_(%rip), %edx
	movl	4+fmuser_(%rip), %eax
	cmpl	%eax, %edx
	setne	%al
	movzbl	%al, %edx
	movl	fmsave_(%rip), %ecx
	movl	fmuser_(%rip), %eax
	cmpl	%eax, %ecx
	setl	%al
	movzbl	%al, %eax
	orl	%edx, %eax
	testl	%eax, %eax
	je	.L263
	movl	fmuser_(%rip), %eax
	movl	%eax, -4(%rbp)
	movl	fmuser_(%rip), %eax
	leal	2(%rax), %edx
	movl	2656+fm_(%rip), %eax
	cmpl	%eax, %edx
	cmovle	%edx, %eax
	movl	%eax, fmuser_(%rip)
	leaq	32+fmsave_(%rip), %rdi
	call	fmpi2_
	movl	4+fmuser_(%rip), %eax
	movl	%eax, 4+fmsave_(%rip)
	movl	fmuser_(%rip), %eax
	movl	%eax, fmsave_(%rip)
	movl	-4(%rbp), %eax
	movl	%eax, fmuser_(%rip)
.L263:
	movq	-64(%rbp), %rdx
	movq	-64(%rbp), %rax
	leaq	32+fmsave_(%rip), %rsi
	movq	%rax, %rdi
	call	fmmpy_
	movq	-64(%rbp), %rdx
	movq	-64(%rbp), %rax
	leaq	.LC17(%rip), %rsi
	movq	%rax, %rdi
	call	fmdivi_
.L262:
	movq	-64(%rbp), %rax
	movl	(%rax), %edx
	movl	2640+fm_(%rip), %eax
	cmpl	%eax, %edx
	je	.L264
	movl	-16(%rbp), %eax
	testl	%eax, %eax
	jne	.L265
	movq	-64(%rbp), %rdx
	movq	-64(%rbp), %rax
	movq	%rdx, %rsi
	movq	%rax, %rdi
	call	fmsin2_
	jmp	.L264
.L265:
	movq	-64(%rbp), %rdx
	movq	-64(%rbp), %rax
	movq	%rdx, %rsi
	movq	%rax, %rdi
	call	fmcos2_
.L264:
	movl	-12(%rbp), %eax
	cmpl	$-1, %eax
	sete	%al
	movzbl	%al, %edx
	movq	-64(%rbp), %rax
	movl	(%rax), %ecx
	movl	2640+fm_(%rip), %eax
	cmpl	%eax, %ecx
	setne	%al
	movzbl	%al, %eax
	andl	%edx, %eax
	testl	%eax, %eax
	je	.L261
	movq	-64(%rbp), %rax
	movl	4(%rax), %eax
	negl	%eax
	movl	%eax, %edx
	movq	-64(%rbp), %rax
	movl	%edx, 4(%rax)
.L261:
	leaq	-24(%rbp), %r8
	leaq	-20(%rbp), %rdi
	leaq	-32(%rbp), %rcx
	leaq	-36(%rbp), %rdx
	movq	-64(%rbp), %rsi
	movq	-64(%rbp), %rax
	movq	%r8, %r9
	movq	%rdi, %r8
	movq	%rax, %rdi
	call	fmexit_
	nop
.L258:
	leave
	.cfi_def_cfa 7, 8
	ret
	.cfi_endproc
.LFE19:
	.size	fmsin_, .-fmsin_
	.globl	fmsign_
	.type	fmsign_, @function
fmsign_:
.LFB20:
	.cfi_startproc
	pushq	%rbp
	.cfi_def_cfa_offset 16
	.cfi_offset 6, -16
	movq	%rsp, %rbp
	.cfi_def_cfa_register 6
	subq	$48, %rsp
	movq	%rdi, -24(%rbp)
	movq	%rsi, -32(%rbp)
	movq	%rdx, -40(%rbp)
	movl	$0, 32+fmuser_(%rip)
	movl	2616+fm_(%rip), %eax
	addl	$1, %eax
	movl	%eax, 2616+fm_(%rip)
	movl	2616+fm_(%rip), %eax
	cltq
	subq	$1, %rax
	addq	$665, %rax
	leaq	0(,%rax,4), %rdx
	leaq	fm_(%rip), %rax
	movl	$35, (%rdx,%rax)
	movl	24+fmuser_(%rip), %eax
	testl	%eax, %eax
	je	.L268
	movq	-32(%rbp), %rdx
	movq	-24(%rbp), %rax
	leaq	.LC11(%rip), %rcx
	movq	%rax, %rsi
	leaq	.LC11(%rip), %rdi
	call	fmntr_
.L268:
	movl	36+fmuser_(%rip), %eax
	movl	%eax, -4(%rbp)
	movl	$0, 36+fmuser_(%rip)
	movq	-24(%rbp), %rax
	movl	(%rax), %edx
	movl	2640+fm_(%rip), %eax
	cmpl	%eax, %edx
	sete	%al
	movzbl	%al, %edx
	movq	-32(%rbp), %rax
	movl	(%rax), %ecx
	movl	2640+fm_(%rip), %eax
	cmpl	%eax, %ecx
	sete	%al
	movzbl	%al, %eax
	orl	%edx, %eax
	testl	%eax, %eax
	je	.L269
	movq	-40(%rbp), %rax
	movq	%rax, %rsi
	leaq	.LC5(%rip), %rdi
	call	fmim_
	movl	2640+fm_(%rip), %edx
	movq	-40(%rbp), %rax
	movl	%edx, (%rax)
	movq	-40(%rbp), %rax
	movl	$1, 4(%rax)
	movl	$-4, 32+fmuser_(%rip)
	jmp	.L270
.L269:
	movq	-32(%rbp), %rax
	movl	4(%rax), %eax
	testl	%eax, %eax
	js	.L271
	movq	-40(%rbp), %rsi
	movq	-24(%rbp), %rax
	leaq	fmuser_(%rip), %rcx
	leaq	fmuser_(%rip), %rdx
	movq	%rax, %rdi
	call	fmequ_
	movq	-40(%rbp), %rax
	movl	4(%rax), %eax
	cltd
	xorl	%edx, %eax
	subl	%edx, %eax
	movq	-40(%rbp), %rdx
	movl	%eax, 4(%rdx)
	jmp	.L270
.L271:
	movq	-40(%rbp), %rsi
	movq	-24(%rbp), %rax
	leaq	fmuser_(%rip), %rcx
	leaq	fmuser_(%rip), %rdx
	movq	%rax, %rdi
	call	fmequ_
	movq	-40(%rbp), %rax
	movl	4(%rax), %eax
	cltd
	xorl	%edx, %eax
	subl	%edx, %eax
	negl	%eax
	movl	%eax, %edx
	movq	-40(%rbp), %rax
	movl	%edx, 4(%rax)
.L270:
	movl	-4(%rbp), %eax
	movl	%eax, 36+fmuser_(%rip)
	movl	24+fmuser_(%rip), %eax
	testl	%eax, %eax
	je	.L272
	movq	-40(%rbp), %rdx
	movq	-40(%rbp), %rax
	leaq	.LC6(%rip), %rcx
	movq	%rax, %rsi
	leaq	.LC6(%rip), %rdi
	call	fmntr_
.L272:
	movl	2616+fm_(%rip), %eax
	subl	$1, %eax
	movl	%eax, 2616+fm_(%rip)
	nop
	leave
	.cfi_def_cfa 7, 8
	ret
	.cfi_endproc
.LFE20:
	.size	fmsign_, .-fmsign_
	.section	.rodata
	.align 8
.LC23:
	.ascii	"(//' PRECISION OUT OF RANGE WHEN CALLING FMSET.',           "
	.ascii	"       '  NPREC =',I20/' THE NEAREST VALID NDIG WILL BE USED"
	.ascii	"',           ' INSTEAD:   NDIG =',I6//)"
	.text
	.globl	fmset_
	.type	fmset_, @function
fmset_:
.LFB21:
	.cfi_startproc
	pushq	%rbp
	.cfi_def_cfa_offset 16
	.cfi_offset 6, -16
	movq	%rsp, %rbp
	.cfi_def_cfa_register 6
	subq	$576, %rsp
	movq	%rdi, -568(%rbp)
	movl	$6, 20+fmuser_(%rip)
	movl	$3, 2736+fm_(%rip)
.L276:
	movl	2736+fm_(%rip), %eax
	addl	%eax, %eax
	addl	$1, %eax
	movl	%eax, -8(%rbp)
	movl	-8(%rbp), %eax
	movl	%eax, %edx
	shrl	$31, %edx
	addl	%edx, %eax
	sarl	%eax
	movl	%eax, %edx
	movl	2736+fm_(%rip), %eax
	cmpl	%eax, %edx
	jne	.L275
	movl	-8(%rbp), %eax
	movl	%eax, 2736+fm_(%rip)
	jmp	.L276
.L275:
	movsd	.LC21(%rip), %xmm0
	movsd	%xmm0, 2744+fm_(%rip)
	movss	.LC22(%rip), %xmm0
	movss	%xmm0, 2740+fm_(%rip)
	movl	$326, 2656+fm_(%rip)
	movl	2736+fm_(%rip), %eax
	cvtsi2sdl	%eax, %xmm0
	movsd	%xmm0, -16(%rbp)
	movsd	-16(%rbp), %xmm0
	sqrtsd	%xmm0, %xmm0
	cvttsd2sil	%xmm0, %eax
	movl	%eax, 2652+fm_(%rip)
	movl	2652+fm_(%rip), %eax
	cvtsi2ssl	%eax, %xmm0
	call	log10f@PLT
	cvttss2sil	%xmm0, %eax
	movl	%eax, -20(%rbp)
	movl	-20(%rbp), %eax
	movl	%eax, %esi
	movl	$10, %edi
	call	_gfortran_pow_i4_i4@PLT
	movl	%eax, 4+fmuser_(%rip)
	movq	-568(%rbp), %rax
	movl	(%rax), %eax
	movl	%eax, -4(%rbp)
	movq	-568(%rbp), %rax
	movl	(%rax), %eax
	addl	$2, %eax
	cltd
	idivl	-20(%rbp)
	addl	$2, %eax
	movl	%eax, fmuser_(%rip)
	movl	fmuser_(%rip), %eax
	cmpl	$1, %eax
	setle	%al
	movzbl	%al, %edx
	movl	fmuser_(%rip), %eax
	cmpl	$256, %eax
	setg	%al
	movzbl	%al, %eax
	orl	%edx, %eax
	testl	%eax, %eax
	je	.L277
	movl	$256, %edx
	movl	fmuser_(%rip), %eax
	cmpl	%eax, %edx
	cmovle	%edx, %eax
	movl	$2, %edx
	cmpl	%edx, %eax
	cmovl	%edx, %eax
	movl	%eax, fmuser_(%rip)
	leaq	.LC1(%rip), %rax
	movq	%rax, -552(%rbp)
	movl	$467, -544(%rbp)
	leaq	.LC23(%rip), %rax
	movq	%rax, -480(%rbp)
	movq	$159, -472(%rbp)
	movl	$4096, -560(%rbp)
	movl	20+fmuser_(%rip), %eax
	movl	%eax, -556(%rbp)
	leaq	-560(%rbp), %rax
	movq	%rax, %rdi
	call	_gfortran_st_write@PLT
	movq	-568(%rbp), %rcx
	leaq	-560(%rbp), %rax
	movl	$4, %edx
	movq	%rcx, %rsi
	movq	%rax, %rdi
	call	_gfortran_transfer_integer_write@PLT
	leaq	-560(%rbp), %rax
	movl	$4, %edx
	leaq	fmuser_(%rip), %rsi
	movq	%rax, %rdi
	call	_gfortran_transfer_integer_write@PLT
	leaq	-560(%rbp), %rax
	movq	%rax, %rdi
	call	_gfortran_st_write_done@PLT
	movl	$0, -4(%rbp)
.L277:
	movl	$0, 32+fmuser_(%rip)
	movl	$0, 24+fmuser_(%rip)
	movl	$1, 28+fmuser_(%rip)
	movl	$0, 2616+fm_(%rip)
	movl	$0, fmsave_(%rip)
	movl	$0, 4+fmsave_(%rip)
	movl	$0, 8+fmsave_(%rip)
	movl	$0, 12+fmsave_(%rip)
	movl	$0, 16+fmsave_(%rip)
	movl	$0, 20+fmsave_(%rip)
	movl	$0, 24+fmsave_(%rip)
	movl	$0, 28+fmsave_(%rip)
	movl	2652+fm_(%rip), %eax
	cvtsi2sdl	%eax, %xmm0
	movsd	%xmm0, -16(%rbp)
	movsd	-16(%rbp), %xmm0
	mulsd	%xmm0, %xmm0
	movsd	%xmm0, -576(%rbp)
	movq	-16(%rbp), %rax
	movq	%rax, %xmm0
	call	log@PLT
	addsd	%xmm0, %xmm0
	movsd	-576(%rbp), %xmm2
	divsd	%xmm0, %xmm2
	movapd	%xmm2, %xmm0
	movsd	.LC12(%rip), %xmm1
	subsd	%xmm1, %xmm0
	cvttsd2sil	%xmm0, %eax
	movl	%eax, 2620+fm_(%rip)
	movl	2620+fm_(%rip), %eax
	leal	(%rax,%rax), %ecx
	movl	2620+fm_(%rip), %eax
	movslq	%eax, %rdx
	imulq	$1374389535, %rdx, %rdx
	shrq	$32, %rdx
	sarl	$5, %edx
	sarl	$31, %eax
	subl	%eax, %edx
	movl	%edx, %eax
	addl	%ecx, %eax
	movl	%eax, 2624+fm_(%rip)
	movl	$0, 2628+fm_(%rip)
	movl	2624+fm_(%rip), %eax
	movl	$-1280, %edx
	subl	%eax, %edx
	movl	%edx, %eax
	movl	%eax, 2632+fm_(%rip)
	movl	2632+fm_(%rip), %eax
	negl	%eax
	movl	%eax, 2636+fm_(%rip)
	movl	2636+fm_(%rip), %eax
	addl	$1280, %eax
	movl	%eax, 2640+fm_(%rip)
	movss	2740+fm_(%rip), %xmm1
	movss	.LC24(%rip), %xmm0
	mulss	%xmm1, %xmm0
	movss	.LC25(%rip), %xmm1
	xorps	%xmm1, %xmm0
	movss	%xmm0, 2648+fm_(%rip)
	movl	2652+fm_(%rip), %edx
	movl	2652+fm_(%rip), %eax
	imull	%edx, %eax
	negl	%eax
	movl	%eax, 2644+fm_(%rip)
	movl	$1, 8+fmuser_(%rip)
	movl	-4(%rbp), %eax
	movl	%eax, 12+fmuser_(%rip)
	movl	$1, 16+fmuser_(%rip)
	movl	$1, 36+fmuser_(%rip)
	movl	$1, 40+fmuser_(%rip)
	nop
	leave
	.cfi_def_cfa 7, 8
	ret
	.cfi_endproc
.LFE21:
	.size	fmset_, .-fmset_
	.section	.rodata
	.align 4
.LC26:
	.long	34
	.text
	.globl	fmpwr_
	.type	fmpwr_, @function
fmpwr_:
.LFB22:
	.cfi_startproc
	pushq	%rbp
	.cfi_def_cfa_offset 16
	.cfi_offset 6, -16
	movq	%rsp, %rbp
	.cfi_def_cfa_register 6
	subq	$80, %rsp
	movq	%rdi, -56(%rbp)
	movq	%rsi, -64(%rbp)
	movq	%rdx, -72(%rbp)
	movl	36+fmuser_(%rip), %eax
	movl	%eax, -8(%rbp)
	movl	$0, 36+fmuser_(%rip)
	leaq	-20(%rbp), %rdx
	movq	-64(%rbp), %rax
	movq	%rdx, %rsi
	movq	%rax, %rdi
	call	fmmi_
	movl	-8(%rbp), %eax
	movl	%eax, 36+fmuser_(%rip)
	movl	32+fmuser_(%rip), %eax
	movl	%eax, -12(%rbp)
	leaq	-32(%rbp), %rdi
	movq	-72(%rbp), %rsi
	movq	-64(%rbp), %rdx
	movq	-56(%rbp), %rax
	leaq	-28(%rbp), %rcx
	pushq	%rcx
	leaq	-24(%rbp), %rcx
	pushq	%rcx
	leaq	-36(%rbp), %rcx
	pushq	%rcx
	leaq	-40(%rbp), %rcx
	pushq	%rcx
	movq	%rdi, %r9
	movq	%rsi, %r8
	leaq	.LC11(%rip), %rcx
	movq	%rax, %rsi
	leaq	.LC26(%rip), %rdi
	call	fmentr_
	addq	$32, %rsp
	movl	-32(%rbp), %eax
	testl	%eax, %eax
	jne	.L279
	movl	$0, %edx
	movq	-64(%rbp), %rax
	movl	(%rax), %eax
	cmpl	%edx, %eax
	cmovl	%edx, %eax
	movl	%eax, -16(%rbp)
	movl	fmuser_(%rip), %edx
	movl	-16(%rbp), %eax
	addl	%edx, %eax
	movl	%eax, fmuser_(%rip)
	movl	fmuser_(%rip), %edx
	movl	2656+fm_(%rip), %eax
	cmpl	%eax, %edx
	jle	.L282
	movl	$-9, 32+fmuser_(%rip)
	call	fmwarn_
	movl	2640+fm_(%rip), %edx
	movq	-72(%rbp), %rax
	movl	%edx, (%rax)
	movq	-72(%rbp), %rax
	movl	$1, 4(%rax)
	movl	-40(%rbp), %edx
	movl	$2, -4(%rbp)
.L284:
	cmpl	%edx, -4(%rbp)
	setg	%al
	movzbl	%al, %eax
	testl	%eax, %eax
	jne	.L289
	movl	-4(%rbp), %eax
	addl	$1, %eax
	cltq
	leaq	-1(%rax), %rcx
	movq	-72(%rbp), %rax
	movl	$0, (%rax,%rcx,4)
	addl	$1, -4(%rbp)
	jmp	.L284
.L289:
	nop
	leaq	-28(%rbp), %r8
	leaq	-24(%rbp), %rdi
	leaq	-36(%rbp), %rcx
	leaq	-40(%rbp), %rdx
	movq	-72(%rbp), %rsi
	movq	-72(%rbp), %rax
	movq	%r8, %r9
	movq	%rdi, %r8
	movq	%rax, %rdi
	call	fmexit_
	jmp	.L279
.L282:
	movl	36+fmuser_(%rip), %eax
	movl	%eax, -8(%rbp)
	movl	$0, 36+fmuser_(%rip)
	leaq	-40(%rbp), %rdx
	movq	-56(%rbp), %rax
	leaq	fmuser_(%rip), %rcx
	leaq	6540+fm1_(%rip), %rsi
	movq	%rax, %rdi
	call	fmequ_
	cmpl	$0, -12(%rbp)
	jne	.L285
	movq	-72(%rbp), %rdx
	leaq	-20(%rbp), %rax
	movq	%rax, %rsi
	leaq	6540+fm1_(%rip), %rdi
	call	fmipwr_
	jmp	.L286
.L285:
	movl	6544+fm1_(%rip), %eax
	testl	%eax, %eax
	jg	.L287
	movq	-72(%rbp), %rax
	movq	%rax, %rsi
	leaq	.LC5(%rip), %rdi
	call	fmim_
	movl	2640+fm_(%rip), %edx
	movq	-72(%rbp), %rax
	movl	%edx, (%rax)
	movq	-72(%rbp), %rax
	movl	$1, 4(%rax)
	movl	$-4, 32+fmuser_(%rip)
	jmp	.L286
.L287:
	leaq	6540+fm1_(%rip), %rsi
	leaq	6540+fm1_(%rip), %rdi
	call	fmln_
	leaq	-40(%rbp), %rdx
	movq	-64(%rbp), %rax
	leaq	fmuser_(%rip), %rcx
	leaq	1308+fm1_(%rip), %rsi
	movq	%rax, %rdi
	call	fmequ_
	leaq	6540+fm1_(%rip), %rdx
	leaq	1308+fm1_(%rip), %rsi
	leaq	6540+fm1_(%rip), %rdi
	call	fmmpy_
	movq	-72(%rbp), %rax
	movq	%rax, %rsi
	leaq	6540+fm1_(%rip), %rdi
	call	fmexp_
.L286:
	movl	-8(%rbp), %eax
	movl	%eax, 36+fmuser_(%rip)
	leaq	-28(%rbp), %r8
	leaq	-24(%rbp), %rdi
	leaq	-36(%rbp), %rcx
	leaq	-40(%rbp), %rdx
	movq	-72(%rbp), %rsi
	movq	-72(%rbp), %rax
	movq	%r8, %r9
	movq	%rdi, %r8
	movq	%rax, %rdi
	call	fmexit_
	nop
.L279:
	leave
	.cfi_def_cfa 7, 8
	ret
	.cfi_endproc
.LFE22:
	.size	fmpwr_, .-fmpwr_
	.section	.rodata
.LC27:
	.ascii	"(' INPUT TO FMPI')"
	.text
	.globl	fmpi_
	.type	fmpi_, @function
fmpi_:
.LFB23:
	.cfi_startproc
	pushq	%rbp
	.cfi_def_cfa_offset 16
	.cfi_offset 6, -16
	movq	%rsp, %rbp
	.cfi_def_cfa_register 6
	subq	$576, %rsp
	movq	%rdi, -568(%rbp)
	movl	$0, 32+fmuser_(%rip)
	movl	2616+fm_(%rip), %eax
	addl	$1, %eax
	movl	%eax, 2616+fm_(%rip)
	movl	2616+fm_(%rip), %eax
	cltq
	subq	$1, %rax
	addq	$665, %rax
	leaq	0(,%rax,4), %rdx
	leaq	fm_(%rip), %rax
	movl	$33, (%rdx,%rax)
	movl	24+fmuser_(%rip), %eax
	cltd
	xorl	%edx, %eax
	subl	%edx, %eax
	cmpl	$1, %eax
	setg	%al
	movzbl	%al, %edx
	movl	2616+fm_(%rip), %ecx
	movl	28+fmuser_(%rip), %eax
	cmpl	%eax, %ecx
	setle	%al
	movzbl	%al, %eax
	andl	%edx, %eax
	testl	%eax, %eax
	je	.L291
	leaq	.LC1(%rip), %rax
	movq	%rax, -552(%rbp)
	movl	$7198, -544(%rbp)
	leaq	.LC27(%rip), %rax
	movq	%rax, -480(%rbp)
	movq	$18, -472(%rbp)
	movl	$4096, -560(%rbp)
	movl	20+fmuser_(%rip), %eax
	movl	%eax, -556(%rbp)
	leaq	-560(%rbp), %rax
	movq	%rax, %rdi
	call	_gfortran_st_write@PLT
	leaq	-560(%rbp), %rax
	movq	%rax, %rdi
	call	_gfortran_st_write_done@PLT
.L291:
	movl	2628+fm_(%rip), %eax
	movl	%eax, -8(%rbp)
	movl	$1, 2628+fm_(%rip)
	movl	fmuser_(%rip), %eax
	movl	%eax, -24(%rbp)
	movl	2616+fm_(%rip), %eax
	cmpl	$1, %eax
	jne	.L292
	movl	4+fmuser_(%rip), %eax
	cvtsi2ssl	%eax, %xmm0
	movss	%xmm0, -12(%rbp)
	movl	-12(%rbp), %eax
	movd	%eax, %xmm0
	call	logf@PLT
	movss	.LC28(%rip), %xmm1
	divss	%xmm0, %xmm1
	movss	.LC29(%rip), %xmm0
	addss	%xmm1, %xmm0
	cvttss2sil	%xmm0, %eax
	movl	%eax, -16(%rbp)
	movl	fmuser_(%rip), %edx
	movl	-16(%rbp), %eax
	addl	%edx, %eax
	movl	$2, %edx
	cmpl	$2, %eax
	cmovl	%edx, %eax
	movl	%eax, fmuser_(%rip)
	movl	fmuser_(%rip), %edx
	movl	2656+fm_(%rip), %eax
	cmpl	%eax, %edx
	jle	.L292
	movl	$-9, 32+fmuser_(%rip)
	call	fmwarn_
	movl	2640+fm_(%rip), %edx
	movq	-568(%rbp), %rax
	movl	%edx, (%rax)
	movq	-568(%rbp), %rax
	movl	$1, 4(%rax)
	movl	-24(%rbp), %edx
	movl	$2, -4(%rbp)
.L294:
	cmpl	%edx, -4(%rbp)
	setg	%al
	movzbl	%al, %eax
	testl	%eax, %eax
	jne	.L299
	movl	-4(%rbp), %eax
	addl	$1, %eax
	cltq
	leaq	-1(%rax), %rcx
	movq	-568(%rbp), %rax
	movl	$0, (%rax,%rcx,4)
	addl	$1, -4(%rbp)
	jmp	.L294
.L299:
	nop
	jmp	.L295
.L292:
	movl	4+fmsave_(%rip), %edx
	movl	4+fmuser_(%rip), %eax
	cmpl	%eax, %edx
	sete	%al
	movzbl	%al, %edx
	movl	fmsave_(%rip), %ecx
	movl	fmuser_(%rip), %eax
	cmpl	%eax, %ecx
	setge	%al
	movzbl	%al, %eax
	andl	%edx, %eax
	testl	%eax, %eax
	je	.L296
	leaq	-24(%rbp), %rdx
	movq	-568(%rbp), %rax
	movq	%rdx, %rcx
	leaq	fmsave_(%rip), %rdx
	movq	%rax, %rsi
	leaq	32+fmsave_(%rip), %rdi
	call	fmequ_
	jmp	.L295
.L296:
	movl	fmuser_(%rip), %eax
	movl	%eax, -20(%rbp)
	movl	fmuser_(%rip), %eax
	leal	2(%rax), %edx
	movl	2656+fm_(%rip), %eax
	cmpl	%eax, %edx
	cmovle	%edx, %eax
	movl	%eax, fmuser_(%rip)
	leaq	32+fmsave_(%rip), %rdi
	call	fmpi2_
	movl	4+fmuser_(%rip), %eax
	movl	%eax, 4+fmsave_(%rip)
	movl	fmuser_(%rip), %eax
	movl	%eax, fmsave_(%rip)
	leaq	-24(%rbp), %rdx
	movq	-568(%rbp), %rax
	movq	%rdx, %rcx
	leaq	fmuser_(%rip), %rdx
	movq	%rax, %rsi
	leaq	32+fmsave_(%rip), %rdi
	call	fmequ_
	movl	-20(%rbp), %eax
	movl	%eax, fmuser_(%rip)
.L295:
	movl	-24(%rbp), %eax
	movl	%eax, fmuser_(%rip)
	movl	-8(%rbp), %eax
	movl	%eax, 2628+fm_(%rip)
	movl	24+fmuser_(%rip), %eax
	testl	%eax, %eax
	je	.L297
	movq	-568(%rbp), %rdx
	movq	-568(%rbp), %rax
	leaq	.LC6(%rip), %rcx
	movq	%rax, %rsi
	leaq	.LC6(%rip), %rdi
	call	fmntr_
.L297:
	movl	2616+fm_(%rip), %eax
	subl	$1, %eax
	movl	%eax, 2616+fm_(%rip)
	nop
	leave
	.cfi_def_cfa 7, 8
	ret
	.cfi_endproc
.LFE23:
	.size	fmpi_, .-fmpi_
	.section	.rodata
	.align 4
.LC30:
	.long	31
	.text
	.globl	fmnint_
	.type	fmnint_, @function
fmnint_:
.LFB24:
	.cfi_startproc
	pushq	%rbp
	.cfi_def_cfa_offset 16
	.cfi_offset 6, -16
	movq	%rsp, %rbp
	.cfi_def_cfa_register 6
	subq	$48, %rsp
	movq	%rdi, -40(%rbp)
	movq	%rsi, -48(%rbp)
	leaq	-20(%rbp), %rdi
	movq	-48(%rbp), %rsi
	movq	-40(%rbp), %rdx
	movq	-40(%rbp), %rax
	leaq	-16(%rbp), %rcx
	pushq	%rcx
	leaq	-12(%rbp), %rcx
	pushq	%rcx
	leaq	-24(%rbp), %rcx
	pushq	%rcx
	leaq	-28(%rbp), %rcx
	pushq	%rcx
	movq	%rdi, %r9
	movq	%rsi, %r8
	leaq	.LC6(%rip), %rcx
	movq	%rax, %rsi
	leaq	.LC30(%rip), %rdi
	call	fmentr_
	addq	$32, %rsp
	movl	-20(%rbp), %eax
	testl	%eax, %eax
	jne	.L300
	movl	36+fmuser_(%rip), %eax
	movl	%eax, -4(%rbp)
	movl	$0, 36+fmuser_(%rip)
	leaq	-28(%rbp), %rdx
	movq	-48(%rbp), %rsi
	movq	-40(%rbp), %rax
	leaq	fmuser_(%rip), %rcx
	movq	%rax, %rdi
	call	fmequ_
	movq	-40(%rbp), %rax
	movl	4(%rax), %eax
	movl	%eax, -8(%rbp)
	movq	-48(%rbp), %rax
	movl	4(%rax), %eax
	cltd
	xorl	%edx, %eax
	subl	%edx, %eax
	movq	-48(%rbp), %rdx
	movl	%eax, 4(%rdx)
	leaq	fm1_(%rip), %rsi
	leaq	.LC6(%rip), %rdi
	call	fmi2m_
	leaq	fm1_(%rip), %rdx
	leaq	.LC11(%rip), %rsi
	leaq	fm1_(%rip), %rdi
	call	fmdivi_
	movq	-48(%rbp), %rdx
	movq	-48(%rbp), %rax
	leaq	fm1_(%rip), %rsi
	movq	%rax, %rdi
	call	fmadd_
	movq	-48(%rbp), %rdx
	movq	-48(%rbp), %rax
	movq	%rdx, %rsi
	movq	%rax, %rdi
	call	fmint_
	cmpl	$0, -8(%rbp)
	jns	.L303
	movq	-48(%rbp), %rax
	movl	4(%rax), %eax
	negl	%eax
	movl	%eax, %edx
	movq	-48(%rbp), %rax
	movl	%edx, 4(%rax)
.L303:
	movl	-4(%rbp), %eax
	movl	%eax, 36+fmuser_(%rip)
	leaq	-16(%rbp), %r8
	leaq	-12(%rbp), %rdi
	leaq	-24(%rbp), %rcx
	leaq	-28(%rbp), %rdx
	movq	-48(%rbp), %rsi
	movq	-48(%rbp), %rax
	movq	%r8, %r9
	movq	%rdi, %r8
	movq	%rax, %rdi
	call	fmexit_
	nop
.L300:
	leave
	.cfi_def_cfa 7, 8
	ret
	.cfi_endproc
.LFE24:
	.size	fmnint_, .-fmnint_
	.globl	fmmpyi_
	.type	fmmpyi_, @function
fmmpyi_:
.LFB25:
	.cfi_startproc
	pushq	%rbp
	.cfi_def_cfa_offset 16
	.cfi_offset 6, -16
	movq	%rsp, %rbp
	.cfi_def_cfa_register 6
	subq	$96, %rsp
	movq	%rdi, -72(%rbp)
	movq	%rsi, -80(%rbp)
	movq	%rdx, -88(%rbp)
	movl	2616+fm_(%rip), %eax
	addl	$1, %eax
	movl	%eax, 2616+fm_(%rip)
	movl	2616+fm_(%rip), %eax
	cltq
	subq	$1, %rax
	addq	$665, %rax
	leaq	0(,%rax,4), %rdx
	leaq	fm_(%rip), %rax
	movl	$30, (%rdx,%rax)
	movl	24+fmuser_(%rip), %eax
	testl	%eax, %eax
	je	.L306
	movq	-72(%rbp), %rdx
	movq	-72(%rbp), %rax
	leaq	.LC6(%rip), %rcx
	movq	%rax, %rsi
	leaq	.LC11(%rip), %rdi
	call	fmntr_
	movq	-80(%rbp), %rax
	leaq	.LC5(%rip), %rdx
	movq	%rax, %rsi
	leaq	.LC11(%rip), %rdi
	call	fmntri_
.L306:
	movl	$0, 32+fmuser_(%rip)
	movl	fmuser_(%rip), %eax
	addl	$1, %eax
	movl	%eax, -12(%rbp)
	movq	-72(%rbp), %rax
	movl	(%rax), %edx
	movl	2640+fm_(%rip), %eax
	cmpl	%eax, %edx
	jne	.L307
	movq	-88(%rbp), %rax
	movq	%rax, %rsi
	leaq	.LC5(%rip), %rdi
	call	fmim_
	movl	2640+fm_(%rip), %edx
	movq	-88(%rbp), %rax
	movl	%edx, (%rax)
	movq	-88(%rbp), %rax
	movl	$1, 4(%rax)
	movl	$-4, 32+fmuser_(%rip)
	movl	24+fmuser_(%rip), %eax
	testl	%eax, %eax
	je	.L308
	movq	-88(%rbp), %rdx
	movq	-88(%rbp), %rax
	leaq	.LC6(%rip), %rcx
	movq	%rax, %rsi
	leaq	.LC6(%rip), %rdi
	call	fmntr_
.L308:
	movl	2616+fm_(%rip), %eax
	subl	$1, %eax
	movl	%eax, 2616+fm_(%rip)
	jmp	.L305
.L307:
	movq	-80(%rbp), %rax
	movl	(%rax), %eax
	testl	%eax, %eax
	jne	.L310
	movq	-88(%rbp), %rax
	movq	%rax, %rsi
	leaq	.LC5(%rip), %rdi
	call	fmim_
	movl	24+fmuser_(%rip), %eax
	testl	%eax, %eax
	je	.L311
	movq	-88(%rbp), %rdx
	movq	-88(%rbp), %rax
	leaq	.LC6(%rip), %rcx
	movq	%rax, %rsi
	leaq	.LC6(%rip), %rdi
	call	fmntr_
.L311:
	movl	2616+fm_(%rip), %eax
	subl	$1, %eax
	movl	%eax, 2616+fm_(%rip)
	jmp	.L305
.L310:
	movq	-80(%rbp), %rax
	movl	(%rax), %eax
	cltd
	xorl	%edx, %eax
	subl	%edx, %eax
	cmpl	$1, %eax
	jne	.L312
	movl	-12(%rbp), %ecx
	movl	$1, -4(%rbp)
.L314:
	cmpl	%ecx, -4(%rbp)
	setg	%al
	movzbl	%al, %eax
	testl	%eax, %eax
	jne	.L338
	movl	-4(%rbp), %eax
	cltq
	leaq	-1(%rax), %rdx
	movl	-4(%rbp), %eax
	cltq
	leaq	-1(%rax), %rsi
	movq	-72(%rbp), %rax
	movl	(%rax,%rdx,4), %edx
	movq	-88(%rbp), %rax
	movl	%edx, (%rax,%rsi,4)
	addl	$1, -4(%rbp)
	jmp	.L314
.L338:
	nop
	movq	-72(%rbp), %rax
	movl	(%rax), %edx
	movl	2636+fm_(%rip), %eax
	cmpl	%eax, %edx
	jne	.L315
	movl	$-5, 32+fmuser_(%rip)
.L315:
	movq	-72(%rbp), %rax
	movl	(%rax), %edx
	movl	2632+fm_(%rip), %eax
	cmpl	%eax, %edx
	jne	.L316
	movl	$-6, 32+fmuser_(%rip)
.L316:
	movq	-72(%rbp), %rax
	movl	4(%rax), %edx
	movq	-80(%rbp), %rax
	movl	(%rax), %eax
	imull	%eax, %edx
	movq	-88(%rbp), %rax
	movl	%edx, 4(%rax)
	movl	24+fmuser_(%rip), %eax
	testl	%eax, %eax
	je	.L317
	movq	-88(%rbp), %rdx
	movq	-88(%rbp), %rax
	leaq	.LC6(%rip), %rcx
	movq	%rax, %rsi
	leaq	.LC6(%rip), %rdi
	call	fmntr_
.L317:
	movl	2616+fm_(%rip), %eax
	subl	$1, %eax
	movl	%eax, 2616+fm_(%rip)
	jmp	.L305
.L312:
	movq	-72(%rbp), %rax
	movl	(%rax), %edx
	movl	2636+fm_(%rip), %eax
	cmpl	%eax, %edx
	jne	.L318
	movq	-72(%rbp), %rax
	movl	4(%rax), %eax
	movl	%eax, -16(%rbp)
	movq	-88(%rbp), %rax
	movq	%rax, %rsi
	leaq	.LC5(%rip), %rdi
	call	fmim_
	movl	$-5, 32+fmuser_(%rip)
	movl	2636+fm_(%rip), %edx
	movq	-88(%rbp), %rax
	movl	%edx, (%rax)
	movq	-88(%rbp), %rax
	movl	$1, 4(%rax)
	movl	-16(%rbp), %eax
	shrl	$31, %eax
	movl	%eax, %edx
	movq	-80(%rbp), %rax
	movl	(%rax), %eax
	testl	%eax, %eax
	setg	%al
	movzbl	%al, %eax
	movl	%edx, %ecx
	andl	%eax, %ecx
	cmpl	$0, -16(%rbp)
	setg	%al
	movzbl	%al, %edx
	movq	-80(%rbp), %rax
	movl	(%rax), %eax
	shrl	$31, %eax
	andl	%edx, %eax
	orl	%ecx, %eax
	testl	%eax, %eax
	je	.L319
	movq	-88(%rbp), %rax
	movl	$-1, 4(%rax)
.L319:
	movl	24+fmuser_(%rip), %eax
	testl	%eax, %eax
	je	.L320
	movq	-88(%rbp), %rdx
	movq	-88(%rbp), %rax
	leaq	.LC6(%rip), %rcx
	movq	%rax, %rsi
	leaq	.LC6(%rip), %rdi
	call	fmntr_
.L320:
	movl	2616+fm_(%rip), %eax
	subl	$1, %eax
	movl	%eax, 2616+fm_(%rip)
	jmp	.L305
.L318:
	movq	-72(%rbp), %rax
	movl	(%rax), %edx
	movl	2632+fm_(%rip), %eax
	cmpl	%eax, %edx
	jne	.L321
	movq	-88(%rbp), %rax
	movq	%rax, %rsi
	leaq	.LC5(%rip), %rdi
	call	fmim_
	movl	2640+fm_(%rip), %edx
	movq	-88(%rbp), %rax
	movl	%edx, (%rax)
	movq	-88(%rbp), %rax
	movl	$1, 4(%rax)
	movl	$-4, 32+fmuser_(%rip)
	call	fmwarn_
	movl	24+fmuser_(%rip), %eax
	testl	%eax, %eax
	je	.L322
	movq	-88(%rbp), %rdx
	movq	-88(%rbp), %rax
	leaq	.LC6(%rip), %rcx
	movq	%rax, %rsi
	leaq	.LC6(%rip), %rdi
	call	fmntr_
.L322:
	movl	2616+fm_(%rip), %eax
	subl	$1, %eax
	movl	%eax, 2616+fm_(%rip)
	jmp	.L305
.L321:
	movq	-72(%rbp), %rax
	movl	4(%rax), %eax
	movl	%eax, -16(%rbp)
	movq	-72(%rbp), %rax
	movl	4(%rax), %eax
	cltd
	xorl	%edx, %eax
	subl	%edx, %eax
	movq	-72(%rbp), %rdx
	movl	%eax, 4(%rdx)
	movq	-80(%rbp), %rax
	movl	(%rax), %edx
	movl	%edx, %eax
	sarl	$31, %eax
	xorl	%eax, %edx
	movl	%edx, -20(%rbp)
	subl	%eax, -20(%rbp)
	movq	-72(%rbp), %rax
	movl	4(%rax), %eax
	addl	$1, %eax
	cvtsi2ssl	%eax, %xmm0
	call	logf@PLT
	movss	%xmm0, -92(%rbp)
	cvtsi2ssl	-20(%rbp), %xmm0
	call	logf@PLT
	addss	-92(%rbp), %xmm0
	movss	%xmm0, -92(%rbp)
	movl	4+fmuser_(%rip), %eax
	cvtsi2ssl	%eax, %xmm0
	call	logf@PLT
	movss	-92(%rbp), %xmm1
	divss	%xmm0, %xmm1
	movaps	%xmm1, %xmm0
	cvttss2sil	%xmm0, %eax
	movl	%eax, -48(%rbp)
	movl	2652+fm_(%rip), %eax
	imull	%eax, %eax
	movl	-48(%rbp), %ecx
	movl	fmuser_(%rip), %edx
	cmpl	%edx, %ecx
	setg	%dl
	movzbl	%dl, %ecx
	movl	4+fmuser_(%rip), %edi
	cltd
	idivl	%edi
	cmpl	%eax, -20(%rbp)
	setg	%al
	movzbl	%al, %eax
	orl	%ecx, %eax
	testl	%eax, %eax
	je	.L323
	movq	-80(%rbp), %rax
	leaq	fm1_(%rip), %rsi
	movq	%rax, %rdi
	call	fmim_
	movq	-72(%rbp), %rax
	movl	-16(%rbp), %edx
	movl	%edx, 4(%rax)
	movq	-88(%rbp), %rdx
	movq	-72(%rbp), %rax
	leaq	fm1_(%rip), %rsi
	movq	%rax, %rdi
	call	fmmpy2_
	movl	24+fmuser_(%rip), %eax
	testl	%eax, %eax
	je	.L324
	movq	-88(%rbp), %rdx
	movq	-88(%rbp), %rax
	leaq	.LC6(%rip), %rcx
	movq	%rax, %rsi
	leaq	.LC6(%rip), %rdi
	call	fmntr_
.L324:
	movl	2616+fm_(%rip), %eax
	subl	$1, %eax
	movl	%eax, 2616+fm_(%rip)
	jmp	.L305
.L323:
	movq	-72(%rbp), %rax
	movl	(%rax), %edx
	movl	-48(%rbp), %eax
	addl	%edx, %eax
	movl	%eax, fm_(%rip)
	movl	-48(%rbp), %eax
	addl	$2, %eax
	movl	%eax, -24(%rbp)
	movl	fmuser_(%rip), %eax
	leal	1(%rax), %edx
	movl	-48(%rbp), %eax
	addl	%edx, %eax
	movl	%eax, -28(%rbp)
	movl	fmuser_(%rip), %eax
	addl	$5, %eax
	movl	%eax, -32(%rbp)
	movl	-28(%rbp), %eax
	cmpl	-32(%rbp), %eax
	jg	.L325
	movl	-28(%rbp), %edx
	movl	-32(%rbp), %eax
	movl	%edx, -4(%rbp)
.L327:
	cmpl	%eax, -4(%rbp)
	setg	%dl
	movzbl	%dl, %edx
	testl	%edx, %edx
	jne	.L339
	movl	-4(%rbp), %edx
	movslq	%edx, %rdx
	subq	$1, %rdx
	leaq	0(,%rdx,4), %rcx
	leaq	fm_(%rip), %rdx
	movl	$0, (%rcx,%rdx)
	addl	$1, -4(%rbp)
	jmp	.L327
.L339:
	nop
.L325:
	movl	$0, -8(%rbp)
	movl	-28(%rbp), %edx
	movl	-24(%rbp), %eax
	addl	%edx, %eax
	movl	%eax, -36(%rbp)
	movl	-48(%rbp), %eax
	movl	-36(%rbp), %edx
	subl	%eax, %edx
	movl	%edx, %eax
	movl	%eax, -40(%rbp)
	movl	-24(%rbp), %eax
	movl	-28(%rbp), %ecx
	movl	%eax, -4(%rbp)
.L329:
	cmpl	%ecx, -4(%rbp)
	setg	%al
	movzbl	%al, %eax
	testl	%eax, %eax
	jne	.L340
	movl	-40(%rbp), %eax
	subl	-4(%rbp), %eax
	cltq
	leaq	-1(%rax), %rdx
	movq	-72(%rbp), %rax
	movl	(%rax,%rdx,4), %eax
	imull	-20(%rbp), %eax
	movl	%eax, %edx
	movl	-8(%rbp), %eax
	addl	%edx, %eax
	movl	%eax, -44(%rbp)
	movl	4+fmuser_(%rip), %esi
	movl	-36(%rbp), %eax
	subl	-4(%rbp), %eax
	cltq
	leaq	-1(%rax), %rdi
	movl	-44(%rbp), %eax
	cltd
	idivl	%esi
	movl	%edx, %esi
	leaq	0(,%rdi,4), %rdx
	leaq	fm_(%rip), %rax
	movl	%esi, (%rdx,%rax)
	movl	4+fmuser_(%rip), %edi
	movl	-44(%rbp), %eax
	cltd
	idivl	%edi
	movl	%eax, -8(%rbp)
	addl	$1, -4(%rbp)
	jmp	.L329
.L340:
	nop
	movl	-24(%rbp), %eax
	subl	$1, %eax
	movl	%eax, -28(%rbp)
	movl	-28(%rbp), %eax
	addl	$2, %eax
	movl	%eax, -36(%rbp)
	cmpl	$1, -28(%rbp)
	jle	.L330
	movl	-28(%rbp), %ecx
	movl	$2, -4(%rbp)
.L332:
	cmpl	%ecx, -4(%rbp)
	setg	%al
	movzbl	%al, %eax
	testl	%eax, %eax
	jne	.L341
	movl	4+fmuser_(%rip), %esi
	movl	-36(%rbp), %eax
	subl	-4(%rbp), %eax
	cltq
	leaq	-1(%rax), %rdi
	movl	-8(%rbp), %eax
	cltd
	idivl	%esi
	movl	%edx, %esi
	leaq	0(,%rdi,4), %rdx
	leaq	fm_(%rip), %rax
	movl	%esi, (%rdx,%rax)
	movl	4+fmuser_(%rip), %edi
	movl	-8(%rbp), %eax
	cltd
	idivl	%edi
	movl	%eax, -8(%rbp)
	addl	$1, -4(%rbp)
	jmp	.L332
.L341:
	nop
.L330:
	movq	-72(%rbp), %rax
	movl	-16(%rbp), %edx
	movl	%edx, 4(%rax)
	movl	4+fm_(%rip), %eax
	testl	%eax, %eax
	jne	.L333
	movl	-48(%rbp), %eax
	subl	$1, %eax
	movl	%eax, -52(%rbp)
	leaq	-52(%rbp), %rax
	leaq	.LC6(%rip), %rdx
	movq	%rax, %rsi
	leaq	fmuser_(%rip), %rdi
	call	fmrnd_
	jmp	.L334
.L333:
	leaq	-48(%rbp), %rax
	leaq	.LC5(%rip), %rdx
	movq	%rax, %rsi
	leaq	fmuser_(%rip), %rdi
	call	fmrnd_
.L334:
	movq	-88(%rbp), %rax
	movq	%rax, %rdi
	call	fmmove_
	movq	-80(%rbp), %rax
	movl	(%rax), %eax
	testl	%eax, %eax
	setg	%al
	movzbl	%al, %eax
	movl	-16(%rbp), %edx
	shrl	$31, %edx
	andl	%eax, %edx
	movq	-80(%rbp), %rax
	movl	(%rax), %eax
	shrl	$31, %eax
	movl	%eax, %ecx
	cmpl	$0, -16(%rbp)
	setg	%al
	movzbl	%al, %eax
	andl	%ecx, %eax
	orl	%edx, %eax
	testl	%eax, %eax
	je	.L335
	movq	-88(%rbp), %rax
	movl	4(%rax), %eax
	negl	%eax
	movl	%eax, %edx
	movq	-88(%rbp), %rax
	movl	%edx, 4(%rax)
.L335:
	movl	24+fmuser_(%rip), %eax
	testl	%eax, %eax
	je	.L336
	movq	-88(%rbp), %rdx
	movq	-88(%rbp), %rax
	leaq	.LC6(%rip), %rcx
	movq	%rax, %rsi
	leaq	.LC6(%rip), %rdi
	call	fmntr_
.L336:
	movl	2616+fm_(%rip), %eax
	subl	$1, %eax
	movl	%eax, 2616+fm_(%rip)
	nop
.L305:
	leave
	.cfi_def_cfa 7, 8
	ret
	.cfi_endproc
.LFE25:
	.size	fmmpyi_, .-fmmpyi_
	.section	.rodata
	.align 4
.LC31:
	.long	28
.LC32:
	.ascii	"GE"
	.text
	.globl	fmmod_
	.type	fmmod_, @function
fmmod_:
.LFB26:
	.cfi_startproc
	pushq	%rbp
	.cfi_def_cfa_offset 16
	.cfi_offset 6, -16
	movq	%rsp, %rbp
	.cfi_def_cfa_register 6
	subq	$64, %rsp
	movq	%rdi, -40(%rbp)
	movq	%rsi, -48(%rbp)
	movq	%rdx, -56(%rbp)
	leaq	-24(%rbp), %rdi
	movq	-56(%rbp), %rsi
	movq	-48(%rbp), %rdx
	movq	-40(%rbp), %rax
	leaq	-20(%rbp), %rcx
	pushq	%rcx
	leaq	-16(%rbp), %rcx
	pushq	%rcx
	leaq	-28(%rbp), %rcx
	pushq	%rcx
	leaq	-32(%rbp), %rcx
	pushq	%rcx
	movq	%rdi, %r9
	movq	%rsi, %r8
	leaq	.LC11(%rip), %rcx
	movq	%rax, %rsi
	leaq	.LC31(%rip), %rdi
	call	fmentr_
	addq	$32, %rsp
	movl	-24(%rbp), %eax
	testl	%eax, %eax
	jne	.L342
	movl	$0, 2628+fm_(%rip)
	movl	36+fmuser_(%rip), %eax
	movl	%eax, -8(%rbp)
	movl	$0, 36+fmuser_(%rip)
	movq	-48(%rbp), %rax
	movl	(%rax), %edx
	movq	-40(%rbp), %rax
	movl	(%rax), %eax
	cmpl	%eax, %edx
	setg	%al
	movzbl	%al, %edx
	movq	-48(%rbp), %rax
	movl	4(%rax), %eax
	testl	%eax, %eax
	setne	%al
	movzbl	%al, %eax
	andl	%edx, %eax
	testl	%eax, %eax
	je	.L345
	leaq	-32(%rbp), %rdx
	movq	-40(%rbp), %rax
	movq	%rdx, %rcx
	leaq	fmuser_(%rip), %rdx
	leaq	fm1_(%rip), %rsi
	movq	%rax, %rdi
	call	fmequ_
	jmp	.L346
.L345:
	movl	2616+fm_(%rip), %eax
	cmpl	$1, %eax
	setle	%al
	movzbl	%al, %edx
	movq	-40(%rbp), %rax
	movl	4(%rax), %eax
	testl	%eax, %eax
	setne	%al
	movzbl	%al, %eax
	andl	%edx, %eax
	testl	%eax, %eax
	je	.L347
	movq	-40(%rbp), %rax
	movl	(%rax), %edx
	movl	fmuser_(%rip), %eax
	addl	%eax, %edx
	movq	-48(%rbp), %rax
	movl	(%rax), %eax
	subl	%eax, %edx
	movl	%edx, %eax
	movl	%eax, fmuser_(%rip)
.L347:
	movl	fmuser_(%rip), %edx
	movl	2656+fm_(%rip), %eax
	cmpl	%eax, %edx
	setg	%al
	movzbl	%al, %edx
	movq	-48(%rbp), %rax
	movl	4(%rax), %eax
	testl	%eax, %eax
	sete	%al
	movzbl	%al, %eax
	orl	%edx, %eax
	testl	%eax, %eax
	je	.L348
	movl	$-9, 32+fmuser_(%rip)
	movq	-40(%rbp), %rax
	movl	(%rax), %edx
	movl	2636+fm_(%rip), %eax
	cmpl	%eax, %edx
	sete	%al
	movzbl	%al, %edx
	movq	-48(%rbp), %rax
	movl	(%rax), %ecx
	movl	2632+fm_(%rip), %eax
	cmpl	%eax, %ecx
	sete	%al
	movzbl	%al, %eax
	orl	%eax, %edx
	movq	-48(%rbp), %rax
	movl	4(%rax), %eax
	testl	%eax, %eax
	sete	%al
	movzbl	%al, %eax
	orl	%edx, %eax
	testl	%eax, %eax
	je	.L349
	movl	$-4, 32+fmuser_(%rip)
.L349:
	movl	-8(%rbp), %eax
	movl	%eax, 36+fmuser_(%rip)
	movl	-16(%rbp), %eax
	movl	%eax, 2628+fm_(%rip)
	movl	-28(%rbp), %eax
	movl	%eax, 2620+fm_(%rip)
	call	fmwarn_
	movl	2640+fm_(%rip), %edx
	movq	-56(%rbp), %rax
	movl	%edx, (%rax)
	movq	-56(%rbp), %rax
	movl	$1, 4(%rax)
	movl	-32(%rbp), %edx
	movl	$2, -4(%rbp)
.L351:
	cmpl	%edx, -4(%rbp)
	setg	%al
	movzbl	%al, %eax
	testl	%eax, %eax
	jne	.L357
	movl	-4(%rbp), %eax
	addl	$1, %eax
	cltq
	leaq	-1(%rax), %rcx
	movq	-56(%rbp), %rax
	movl	$0, (%rax,%rcx,4)
	addl	$1, -4(%rbp)
	jmp	.L351
.L357:
	nop
	movl	-32(%rbp), %eax
	movl	%eax, fmuser_(%rip)
	movl	24+fmuser_(%rip), %eax
	testl	%eax, %eax
	je	.L352
	movq	-56(%rbp), %rdx
	movq	-56(%rbp), %rax
	leaq	.LC6(%rip), %rcx
	movq	%rax, %rsi
	leaq	.LC6(%rip), %rdi
	call	fmntr_
.L352:
	movl	2616+fm_(%rip), %eax
	subl	$1, %eax
	movl	%eax, 2616+fm_(%rip)
	jmp	.L342
.L348:
	leaq	-32(%rbp), %rdx
	movq	-40(%rbp), %rax
	leaq	fmuser_(%rip), %rcx
	leaq	1308+fm1_(%rip), %rsi
	movq	%rax, %rdi
	call	fmequ_
	leaq	-32(%rbp), %rdx
	movq	-48(%rbp), %rax
	leaq	fmuser_(%rip), %rcx
	leaq	2616+fm1_(%rip), %rsi
	movq	%rax, %rdi
	call	fmequ_
	movl	1312+fm1_(%rip), %eax
	cltd
	xorl	%edx, %eax
	subl	%edx, %eax
	movl	%eax, 1312+fm1_(%rip)
	movl	2620+fm1_(%rip), %eax
	cltd
	xorl	%edx, %eax
	subl	%edx, %eax
	movl	%eax, 2620+fm1_(%rip)
	leaq	fm1_(%rip), %rdx
	leaq	2616+fm1_(%rip), %rsi
	leaq	1308+fm1_(%rip), %rdi
	call	fmdiv_
	leaq	fm1_(%rip), %rsi
	leaq	fm1_(%rip), %rdi
	call	fmint_
	leaq	fm1_(%rip), %rdx
	leaq	2616+fm1_(%rip), %rsi
	leaq	fm1_(%rip), %rdi
	call	fmmpy_
	leaq	fm1_(%rip), %rdx
	leaq	fm1_(%rip), %rsi
	leaq	1308+fm1_(%rip), %rdi
	call	fmsub_
	movl	24+fmuser_(%rip), %eax
	movl	%eax, -12(%rbp)
	movl	$0, 24+fmuser_(%rip)
	movl	$2, %ecx
	leaq	2616+fm1_(%rip), %rdx
	leaq	.LC32(%rip), %rsi
	leaq	fm1_(%rip), %rdi
	call	fmcomp_
	testl	%eax, %eax
	je	.L353
	movl	-12(%rbp), %eax
	movl	%eax, 24+fmuser_(%rip)
	leaq	fm1_(%rip), %rdx
	leaq	2616+fm1_(%rip), %rsi
	leaq	fm1_(%rip), %rdi
	call	fmsub_
.L353:
	movl	-12(%rbp), %eax
	movl	%eax, 24+fmuser_(%rip)
	movl	4+fm1_(%rip), %eax
	testl	%eax, %eax
	jns	.L354
	leaq	fm1_(%rip), %rdx
	leaq	2616+fm1_(%rip), %rsi
	leaq	fm1_(%rip), %rdi
	call	fmadd_
.L354:
	movq	-40(%rbp), %rax
	movl	4(%rax), %eax
	shrl	$31, %eax
	movl	%eax, %ecx
	movl	fm1_(%rip), %edx
	movl	2640+fm_(%rip), %eax
	cmpl	%eax, %edx
	setne	%al
	movzbl	%al, %eax
	andl	%ecx, %eax
	testl	%eax, %eax
	je	.L346
	movl	4+fm1_(%rip), %eax
	negl	%eax
	movl	%eax, 4+fm1_(%rip)
.L346:
	movl	32+fmuser_(%rip), %eax
	cmpl	$1, %eax
	jne	.L355
	movl	$0, 32+fmuser_(%rip)
.L355:
	movl	-8(%rbp), %eax
	movl	%eax, 36+fmuser_(%rip)
	leaq	-20(%rbp), %rdi
	leaq	-16(%rbp), %rsi
	leaq	-28(%rbp), %rcx
	leaq	-32(%rbp), %rdx
	movq	-56(%rbp), %rax
	movq	%rdi, %r9
	movq	%rsi, %r8
	movq	%rax, %rsi
	leaq	fm1_(%rip), %rdi
	call	fmexit_
	nop
.L342:
	leave
	.cfi_def_cfa 7, 8
	ret
	.cfi_endproc
.LFE26:
	.size	fmmod_, .-fmmod_
	.section	.rodata
.LC33:
	.ascii	"GT"
	.text
	.globl	fmmin_
	.type	fmmin_, @function
fmmin_:
.LFB27:
	.cfi_startproc
	pushq	%rbp
	.cfi_def_cfa_offset 16
	.cfi_offset 6, -16
	movq	%rsp, %rbp
	.cfi_def_cfa_register 6
	subq	$48, %rsp
	movq	%rdi, -24(%rbp)
	movq	%rsi, -32(%rbp)
	movq	%rdx, -40(%rbp)
	movl	$0, 32+fmuser_(%rip)
	movl	2616+fm_(%rip), %eax
	addl	$1, %eax
	movl	%eax, 2616+fm_(%rip)
	movl	2616+fm_(%rip), %eax
	cltq
	subq	$1, %rax
	addq	$665, %rax
	leaq	0(,%rax,4), %rdx
	leaq	fm_(%rip), %rax
	movl	$27, (%rdx,%rax)
	movl	24+fmuser_(%rip), %eax
	testl	%eax, %eax
	je	.L359
	movq	-32(%rbp), %rdx
	movq	-24(%rbp), %rax
	leaq	.LC11(%rip), %rcx
	movq	%rax, %rsi
	leaq	.LC11(%rip), %rdi
	call	fmntr_
.L359:
	movl	36+fmuser_(%rip), %eax
	movl	%eax, -4(%rbp)
	movl	$0, 36+fmuser_(%rip)
	movq	-24(%rbp), %rax
	movl	(%rax), %edx
	movl	2640+fm_(%rip), %eax
	cmpl	%eax, %edx
	sete	%al
	movzbl	%al, %edx
	movq	-32(%rbp), %rax
	movl	(%rax), %ecx
	movl	2640+fm_(%rip), %eax
	cmpl	%eax, %ecx
	sete	%al
	movzbl	%al, %eax
	orl	%edx, %eax
	testl	%eax, %eax
	je	.L360
	movq	-40(%rbp), %rax
	movq	%rax, %rsi
	leaq	.LC5(%rip), %rdi
	call	fmim_
	movl	2640+fm_(%rip), %edx
	movq	-40(%rbp), %rax
	movl	%edx, (%rax)
	movq	-40(%rbp), %rax
	movl	$1, 4(%rax)
	movl	$-4, 32+fmuser_(%rip)
	jmp	.L361
.L360:
	movq	-32(%rbp), %rdx
	movq	-24(%rbp), %rax
	movl	$2, %ecx
	leaq	.LC33(%rip), %rsi
	movq	%rax, %rdi
	call	fmcomp_
	testl	%eax, %eax
	je	.L362
	movq	-40(%rbp), %rsi
	movq	-32(%rbp), %rax
	leaq	fmuser_(%rip), %rcx
	leaq	fmuser_(%rip), %rdx
	movq	%rax, %rdi
	call	fmequ_
	jmp	.L361
.L362:
	movq	-40(%rbp), %rsi
	movq	-24(%rbp), %rax
	leaq	fmuser_(%rip), %rcx
	leaq	fmuser_(%rip), %rdx
	movq	%rax, %rdi
	call	fmequ_
.L361:
	movl	-4(%rbp), %eax
	movl	%eax, 36+fmuser_(%rip)
	movl	24+fmuser_(%rip), %eax
	testl	%eax, %eax
	je	.L363
	movq	-40(%rbp), %rdx
	movq	-40(%rbp), %rax
	leaq	.LC6(%rip), %rcx
	movq	%rax, %rsi
	leaq	.LC6(%rip), %rdi
	call	fmntr_
.L363:
	movl	2616+fm_(%rip), %eax
	subl	$1, %eax
	movl	%eax, 2616+fm_(%rip)
	nop
	leave
	.cfi_def_cfa 7, 8
	ret
	.cfi_endproc
.LFE27:
	.size	fmmin_, .-fmmin_
	.section	.rodata
.LC34:
	.ascii	"LT"
	.text
	.globl	fmmax_
	.type	fmmax_, @function
fmmax_:
.LFB28:
	.cfi_startproc
	pushq	%rbp
	.cfi_def_cfa_offset 16
	.cfi_offset 6, -16
	movq	%rsp, %rbp
	.cfi_def_cfa_register 6
	subq	$48, %rsp
	movq	%rdi, -24(%rbp)
	movq	%rsi, -32(%rbp)
	movq	%rdx, -40(%rbp)
	movl	$0, 32+fmuser_(%rip)
	movl	2616+fm_(%rip), %eax
	addl	$1, %eax
	movl	%eax, 2616+fm_(%rip)
	movl	2616+fm_(%rip), %eax
	cltq
	subq	$1, %rax
	addq	$665, %rax
	leaq	0(,%rax,4), %rdx
	leaq	fm_(%rip), %rax
	movl	$26, (%rdx,%rax)
	movl	24+fmuser_(%rip), %eax
	testl	%eax, %eax
	je	.L366
	movq	-32(%rbp), %rdx
	movq	-24(%rbp), %rax
	leaq	.LC11(%rip), %rcx
	movq	%rax, %rsi
	leaq	.LC11(%rip), %rdi
	call	fmntr_
.L366:
	movl	36+fmuser_(%rip), %eax
	movl	%eax, -4(%rbp)
	movl	$0, 36+fmuser_(%rip)
	movq	-24(%rbp), %rax
	movl	(%rax), %edx
	movl	2640+fm_(%rip), %eax
	cmpl	%eax, %edx
	sete	%al
	movzbl	%al, %edx
	movq	-32(%rbp), %rax
	movl	(%rax), %ecx
	movl	2640+fm_(%rip), %eax
	cmpl	%eax, %ecx
	sete	%al
	movzbl	%al, %eax
	orl	%edx, %eax
	testl	%eax, %eax
	je	.L367
	movq	-40(%rbp), %rax
	movq	%rax, %rsi
	leaq	.LC5(%rip), %rdi
	call	fmim_
	movl	2640+fm_(%rip), %edx
	movq	-40(%rbp), %rax
	movl	%edx, (%rax)
	movq	-40(%rbp), %rax
	movl	$1, 4(%rax)
	movl	$-4, 32+fmuser_(%rip)
	jmp	.L368
.L367:
	movq	-32(%rbp), %rdx
	movq	-24(%rbp), %rax
	movl	$2, %ecx
	leaq	.LC34(%rip), %rsi
	movq	%rax, %rdi
	call	fmcomp_
	testl	%eax, %eax
	je	.L369
	movq	-40(%rbp), %rsi
	movq	-32(%rbp), %rax
	leaq	fmuser_(%rip), %rcx
	leaq	fmuser_(%rip), %rdx
	movq	%rax, %rdi
	call	fmequ_
	jmp	.L368
.L369:
	movq	-40(%rbp), %rsi
	movq	-24(%rbp), %rax
	leaq	fmuser_(%rip), %rcx
	leaq	fmuser_(%rip), %rdx
	movq	%rax, %rdi
	call	fmequ_
.L368:
	movl	-4(%rbp), %eax
	movl	%eax, 36+fmuser_(%rip)
	movl	24+fmuser_(%rip), %eax
	testl	%eax, %eax
	je	.L370
	movq	-40(%rbp), %rdx
	movq	-40(%rbp), %rax
	leaq	.LC6(%rip), %rcx
	movq	%rax, %rsi
	leaq	.LC6(%rip), %rdi
	call	fmntr_
.L370:
	movl	2616+fm_(%rip), %eax
	subl	$1, %eax
	movl	%eax, 2616+fm_(%rip)
	nop
	leave
	.cfi_def_cfa 7, 8
	ret
	.cfi_endproc
.LFE28:
	.size	fmmax_, .-fmmax_
	.section	.rodata
	.align 4
.LC35:
	.long	25
	.text
	.globl	fmm2sp_
	.type	fmm2sp_, @function
fmm2sp_:
.LFB29:
	.cfi_startproc
	pushq	%rbp
	.cfi_def_cfa_offset 16
	.cfi_offset 6, -16
	movq	%rsp, %rbp
	.cfi_def_cfa_register 6
	subq	$32, %rsp
	movq	%rdi, -24(%rbp)
	movq	%rsi, -32(%rbp)
	movl	2616+fm_(%rip), %eax
	addl	$1, %eax
	movl	%eax, 2616+fm_(%rip)
	movl	2616+fm_(%rip), %eax
	cltq
	subq	$1, %rax
	addq	$665, %rax
	leaq	0(,%rax,4), %rdx
	leaq	fm_(%rip), %rax
	movl	$25, (%rdx,%rax)
	leaq	-4(%rbp), %rcx
	movq	-24(%rbp), %rdx
	movq	-24(%rbp), %rax
	movq	%rcx, %r8
	movq	%rdx, %rcx
	movq	%rax, %rdx
	leaq	.LC6(%rip), %rsi
	leaq	.LC35(%rip), %rdi
	call	fmargs_
	movl	24+fmuser_(%rip), %eax
	testl	%eax, %eax
	je	.L373
	movq	-24(%rbp), %rdx
	movq	-24(%rbp), %rax
	leaq	.LC6(%rip), %rcx
	movq	%rax, %rsi
	leaq	.LC11(%rip), %rdi
	call	fmntr_
.L373:
	movl	-4(%rbp), %eax
	testl	%eax, %eax
	je	.L374
	movss	2648+fm_(%rip), %xmm0
	movq	-32(%rbp), %rax
	movss	%xmm0, (%rax)
	movl	$-4, 32+fmuser_(%rip)
	movq	-24(%rbp), %rax
	movl	(%rax), %edx
	movl	2640+fm_(%rip), %eax
	cmpl	%eax, %edx
	je	.L375
	call	fmwarn_
.L375:
	movq	-32(%rbp), %rax
	movss	(%rax), %xmm0
	cvtss2sd	%xmm0, %xmm0
	movsd	%xmm0, -16(%rbp)
	movl	24+fmuser_(%rip), %eax
	testl	%eax, %eax
	je	.L376
	leaq	-16(%rbp), %rax
	leaq	.LC6(%rip), %rdx
	movq	%rax, %rsi
	leaq	.LC6(%rip), %rdi
	call	fmntrr_
.L376:
	movl	2616+fm_(%rip), %eax
	subl	$1, %eax
	movl	%eax, 2616+fm_(%rip)
	jmp	.L372
.L374:
	leaq	-16(%rbp), %rdx
	movq	-24(%rbp), %rax
	movq	%rdx, %rsi
	movq	%rax, %rdi
	call	fmmd_
	movsd	-16(%rbp), %xmm0
	cvtsd2ss	%xmm0, %xmm0
	movq	-32(%rbp), %rax
	movss	%xmm0, (%rax)
	movq	-32(%rbp), %rax
	movss	(%rax), %xmm0
	cvtss2sd	%xmm0, %xmm0
	movsd	%xmm0, -16(%rbp)
	movl	24+fmuser_(%rip), %eax
	testl	%eax, %eax
	je	.L378
	leaq	-16(%rbp), %rax
	leaq	.LC6(%rip), %rdx
	movq	%rax, %rsi
	leaq	.LC6(%rip), %rdi
	call	fmntrr_
.L378:
	movl	2616+fm_(%rip), %eax
	subl	$1, %eax
	movl	%eax, 2616+fm_(%rip)
	nop
.L372:
	leave
	.cfi_def_cfa 7, 8
	ret
	.cfi_endproc
.LFE29:
	.size	fmm2sp_, .-fmm2sp_
	.globl	fmm2i_
	.type	fmm2i_, @function
fmm2i_:
.LFB30:
	.cfi_startproc
	pushq	%rbp
	.cfi_def_cfa_offset 16
	.cfi_offset 6, -16
	movq	%rsp, %rbp
	.cfi_def_cfa_register 6
	subq	$16, %rsp
	movq	%rdi, -8(%rbp)
	movq	%rsi, -16(%rbp)
	movl	2616+fm_(%rip), %eax
	addl	$1, %eax
	movl	%eax, 2616+fm_(%rip)
	movl	2616+fm_(%rip), %eax
	cltq
	subq	$1, %rax
	addq	$665, %rax
	leaq	0(,%rax,4), %rdx
	leaq	fm_(%rip), %rax
	movl	$24, (%rdx,%rax)
	movl	24+fmuser_(%rip), %eax
	testl	%eax, %eax
	je	.L381
	movq	-8(%rbp), %rdx
	movq	-8(%rbp), %rax
	leaq	.LC6(%rip), %rcx
	movq	%rax, %rsi
	leaq	.LC11(%rip), %rdi
	call	fmntr_
.L381:
	movq	-16(%rbp), %rdx
	movq	-8(%rbp), %rax
	movq	%rdx, %rsi
	movq	%rax, %rdi
	call	fmmi_
	movl	24+fmuser_(%rip), %eax
	testl	%eax, %eax
	je	.L382
	movq	-16(%rbp), %rax
	leaq	.LC6(%rip), %rdx
	movq	%rax, %rsi
	leaq	.LC6(%rip), %rdi
	call	fmntri_
.L382:
	movl	2616+fm_(%rip), %eax
	subl	$1, %eax
	movl	%eax, 2616+fm_(%rip)
	nop
	leave
	.cfi_def_cfa 7, 8
	ret
	.cfi_endproc
.LFE30:
	.size	fmm2i_, .-fmm2i_
	.section	.rodata
	.align 4
.LC36:
	.long	23
	.text
	.globl	fmm2dp_
	.type	fmm2dp_, @function
fmm2dp_:
.LFB31:
	.cfi_startproc
	pushq	%rbp
	.cfi_def_cfa_offset 16
	.cfi_offset 6, -16
	movq	%rsp, %rbp
	.cfi_def_cfa_register 6
	subq	$32, %rsp
	movq	%rdi, -24(%rbp)
	movq	%rsi, -32(%rbp)
	movl	2616+fm_(%rip), %eax
	addl	$1, %eax
	movl	%eax, 2616+fm_(%rip)
	movl	2616+fm_(%rip), %eax
	cltq
	subq	$1, %rax
	addq	$665, %rax
	leaq	0(,%rax,4), %rdx
	leaq	fm_(%rip), %rax
	movl	$23, (%rdx,%rax)
	leaq	-4(%rbp), %rcx
	movq	-24(%rbp), %rdx
	movq	-24(%rbp), %rax
	movq	%rcx, %r8
	movq	%rdx, %rcx
	movq	%rax, %rdx
	leaq	.LC6(%rip), %rsi
	leaq	.LC36(%rip), %rdi
	call	fmargs_
	movl	24+fmuser_(%rip), %eax
	testl	%eax, %eax
	je	.L385
	movq	-24(%rbp), %rdx
	movq	-24(%rbp), %rax
	leaq	.LC6(%rip), %rcx
	movq	%rax, %rsi
	leaq	.LC11(%rip), %rdi
	call	fmntr_
.L385:
	movl	-4(%rbp), %eax
	testl	%eax, %eax
	je	.L386
	movss	2648+fm_(%rip), %xmm0
	cvtss2sd	%xmm0, %xmm0
	movq	-32(%rbp), %rax
	movsd	%xmm0, (%rax)
	movl	$-4, 32+fmuser_(%rip)
	movq	-24(%rbp), %rax
	movl	(%rax), %edx
	movl	2640+fm_(%rip), %eax
	cmpl	%eax, %edx
	je	.L387
	call	fmwarn_
.L387:
	movl	24+fmuser_(%rip), %eax
	testl	%eax, %eax
	je	.L388
	movq	-32(%rbp), %rax
	leaq	.LC6(%rip), %rdx
	movq	%rax, %rsi
	leaq	.LC6(%rip), %rdi
	call	fmntrr_
.L388:
	movl	2616+fm_(%rip), %eax
	subl	$1, %eax
	movl	%eax, 2616+fm_(%rip)
	jmp	.L384
.L386:
	movq	-32(%rbp), %rdx
	movq	-24(%rbp), %rax
	movq	%rdx, %rsi
	movq	%rax, %rdi
	call	fmmd_
	movl	24+fmuser_(%rip), %eax
	testl	%eax, %eax
	je	.L390
	movq	-32(%rbp), %rax
	leaq	.LC6(%rip), %rdx
	movq	%rax, %rsi
	leaq	.LC6(%rip), %rdi
	call	fmntrr_
.L390:
	movl	2616+fm_(%rip), %eax
	subl	$1, %eax
	movl	%eax, 2616+fm_(%rip)
	nop
.L384:
	leave
	.cfi_def_cfa 7, 8
	ret
	.cfi_endproc
.LFE31:
	.size	fmm2dp_, .-fmm2dp_
	.section	.rodata
	.align 4
.LC38:
	.long	126
	.align 4
.LC39:
	.long	225
	.align 4
.LC40:
	.long	2401
	.align 4
.LC41:
	.long	4375
	.text
	.globl	fmlni_
	.type	fmlni_, @function
fmlni_:
.LFB32:
	.cfi_startproc
	pushq	%rbp
	.cfi_def_cfa_offset 16
	.cfi_offset 6, -16
	movq	%rsp, %rbp
	.cfi_def_cfa_register 6
	addq	$-128, %rsp
	movq	%rdi, -120(%rbp)
	movq	%rsi, -128(%rbp)
	movl	$0, 32+fmuser_(%rip)
	movl	2616+fm_(%rip), %eax
	addl	$1, %eax
	movl	%eax, 2616+fm_(%rip)
	movl	2616+fm_(%rip), %eax
	cltq
	subq	$1, %rax
	addq	$665, %rax
	leaq	0(,%rax,4), %rdx
	leaq	fm_(%rip), %rax
	movl	$22, (%rdx,%rax)
	movl	24+fmuser_(%rip), %eax
	testl	%eax, %eax
	je	.L393
	movq	-120(%rbp), %rax
	leaq	.LC6(%rip), %rdx
	movq	%rax, %rsi
	leaq	.LC11(%rip), %rdi
	call	fmntri_
.L393:
	movq	-120(%rbp), %rax
	movl	(%rax), %eax
	testl	%eax, %eax
	jg	.L394
	movq	-128(%rbp), %rax
	movq	%rax, %rsi
	leaq	.LC5(%rip), %rdi
	call	fmim_
	movl	2640+fm_(%rip), %edx
	movq	-128(%rbp), %rax
	movl	%edx, (%rax)
	movq	-128(%rbp), %rax
	movl	$1, 4(%rax)
	movl	$-4, 32+fmuser_(%rip)
	call	fmwarn_
	movl	24+fmuser_(%rip), %eax
	testl	%eax, %eax
	je	.L395
	movq	-128(%rbp), %rdx
	movq	-128(%rbp), %rax
	leaq	.LC6(%rip), %rcx
	movq	%rax, %rsi
	leaq	.LC6(%rip), %rdi
	call	fmntr_
.L395:
	movl	2616+fm_(%rip), %eax
	subl	$1, %eax
	movl	%eax, 2616+fm_(%rip)
	jmp	.L392
.L394:
	movq	-120(%rbp), %rax
	movl	(%rax), %eax
	cmpl	$1, %eax
	jne	.L397
	movq	-128(%rbp), %rax
	movq	%rax, %rsi
	leaq	.LC5(%rip), %rdi
	call	fmi2m_
	movl	24+fmuser_(%rip), %eax
	testl	%eax, %eax
	je	.L398
	movq	-128(%rbp), %rdx
	movq	-128(%rbp), %rax
	leaq	.LC6(%rip), %rcx
	movq	%rax, %rsi
	leaq	.LC6(%rip), %rdi
	call	fmntr_
.L398:
	movl	2616+fm_(%rip), %eax
	subl	$1, %eax
	movl	%eax, 2616+fm_(%rip)
	jmp	.L392
.L397:
	movl	fmuser_(%rip), %eax
	movl	%eax, -108(%rbp)
	movl	2616+fm_(%rip), %eax
	cmpl	$1, %eax
	jne	.L399
	movl	4+fmuser_(%rip), %eax
	cvtsi2ssl	%eax, %xmm0
	movss	%xmm0, -64(%rbp)
	movl	-64(%rbp), %eax
	movd	%eax, %xmm0
	call	logf@PLT
	movss	.LC28(%rip), %xmm1
	divss	%xmm0, %xmm1
	movss	.LC29(%rip), %xmm0
	addss	%xmm1, %xmm0
	cvttss2sil	%xmm0, %eax
	movl	%eax, -68(%rbp)
	movl	fmuser_(%rip), %edx
	movl	-68(%rbp), %eax
	addl	%edx, %eax
	movl	$2, %edx
	cmpl	$2, %eax
	cmovl	%edx, %eax
	movl	%eax, fmuser_(%rip)
	movl	fmuser_(%rip), %edx
	movl	2656+fm_(%rip), %eax
	cmpl	%eax, %edx
	jle	.L399
	movl	$-9, 32+fmuser_(%rip)
	call	fmwarn_
	movl	2640+fm_(%rip), %edx
	movq	-128(%rbp), %rax
	movl	%edx, (%rax)
	movq	-128(%rbp), %rax
	movl	$1, 4(%rax)
	movl	-108(%rbp), %edx
	movl	$2, -8(%rbp)
.L401:
	cmpl	%edx, -8(%rbp)
	setg	%al
	movzbl	%al, %eax
	testl	%eax, %eax
	jne	.L425
	movl	-8(%rbp), %eax
	addl	$1, %eax
	cltq
	leaq	-1(%rax), %rcx
	movq	-128(%rbp), %rax
	movl	$0, (%rax,%rcx,4)
	addl	$1, -8(%rbp)
	jmp	.L401
.L425:
	nop
	movl	-108(%rbp), %eax
	movl	%eax, fmuser_(%rip)
	movl	24+fmuser_(%rip), %eax
	testl	%eax, %eax
	je	.L402
	movq	-128(%rbp), %rdx
	movq	-128(%rbp), %rax
	leaq	.LC6(%rip), %rcx
	movq	%rax, %rsi
	leaq	.LC6(%rip), %rdi
	call	fmntr_
.L402:
	movl	2616+fm_(%rip), %eax
	subl	$1, %eax
	movl	%eax, 2616+fm_(%rip)
	jmp	.L392
.L399:
	movl	2628+fm_(%rip), %eax
	movl	%eax, -72(%rbp)
	movl	$1, 2628+fm_(%rip)
	movq	-120(%rbp), %rax
	movl	(%rax), %eax
	movl	%eax, -4(%rbp)
	movq	-120(%rbp), %rax
	movl	(%rax), %edx
	movl	2736+fm_(%rip), %eax
	movslq	%eax, %rcx
	imulq	$1374389535, %rcx, %rcx
	shrq	$32, %rcx
	sarl	$5, %ecx
	sarl	$31, %eax
	subl	%eax, %ecx
	movl	%ecx, %eax
	cmpl	%eax, %edx
	jle	.L403
	movq	-120(%rbp), %rax
	movl	(%rax), %eax
	movslq	%eax, %rdx
	imulq	$1374389535, %rdx, %rdx
	shrq	$32, %rdx
	sarl	$5, %edx
	sarl	$31, %eax
	subl	%eax, %edx
	movl	%edx, %eax
	movl	%eax, -4(%rbp)
.L403:
	movl	-4(%rbp), %eax
	movl	%eax, -60(%rbp)
	movl	$0, -112(%rbp)
	movl	$0, -44(%rbp)
	movl	$0, -48(%rbp)
	movl	$0, -52(%rbp)
	movl	$0, -56(%rbp)
	cvtsi2ssl	-4(%rbp), %xmm0
	movss	%xmm0, -76(%rbp)
	movl	-76(%rbp), %eax
	movd	%eax, %xmm0
	call	logf@PLT
	movss	.LC37(%rip), %xmm1
	divss	%xmm1, %xmm0
	movaps	%xmm0, %xmm1
	movss	.LC29(%rip), %xmm0
	addss	%xmm1, %xmm0
	cvttss2sil	%xmm0, %eax
	movl	%eax, -80(%rbp)
	movl	$1, -40(%rbp)
	movl	-80(%rbp), %ecx
	movl	$1, -24(%rbp)
.L416:
	cmpl	%ecx, -24(%rbp)
	setg	%al
	movzbl	%al, %eax
	testl	%eax, %eax
	jne	.L426
	movl	-40(%rbp), %eax
	cmpl	-4(%rbp), %eax
	setg	%al
	movzbl	%al, %esi
	movl	-40(%rbp), %eax
	subl	-4(%rbp), %eax
	cltd
	xorl	%edx, %eax
	subl	%edx, %eax
	cmpl	%eax, -60(%rbp)
	setl	%al
	movzbl	%al, %eax
	andl	%esi, %eax
	testl	%eax, %eax
	jne	.L427
	movl	-40(%rbp), %eax
	movl	%eax, -36(%rbp)
	movl	-80(%rbp), %esi
	movl	$1, -20(%rbp)
.L415:
	cmpl	%esi, -20(%rbp)
	setg	%al
	movzbl	%al, %eax
	testl	%eax, %eax
	jne	.L428
	movl	-36(%rbp), %eax
	cmpl	-4(%rbp), %eax
	setg	%al
	movzbl	%al, %edi
	movl	-36(%rbp), %eax
	subl	-4(%rbp), %eax
	cltd
	xorl	%edx, %eax
	subl	%edx, %eax
	cmpl	%eax, -60(%rbp)
	setl	%al
	movzbl	%al, %eax
	andl	%edi, %eax
	testl	%eax, %eax
	jne	.L429
	movl	-36(%rbp), %eax
	movl	%eax, -32(%rbp)
	movl	-80(%rbp), %edi
	movl	$1, -16(%rbp)
.L414:
	cmpl	%edi, -16(%rbp)
	setg	%al
	movzbl	%al, %eax
	testl	%eax, %eax
	jne	.L430
	movl	-32(%rbp), %eax
	cmpl	-4(%rbp), %eax
	setg	%al
	movzbl	%al, %r8d
	movl	-32(%rbp), %eax
	subl	-4(%rbp), %eax
	cltd
	xorl	%edx, %eax
	subl	%edx, %eax
	cmpl	%eax, -60(%rbp)
	setl	%al
	movzbl	%al, %eax
	andl	%r8d, %eax
	testl	%eax, %eax
	jne	.L431
	movl	-32(%rbp), %eax
	movl	%eax, -28(%rbp)
	movl	-80(%rbp), %r8d
	movl	$1, -12(%rbp)
.L413:
	cmpl	%r8d, -12(%rbp)
	setg	%al
	movzbl	%al, %eax
	testl	%eax, %eax
	jne	.L432
	movl	-28(%rbp), %eax
	subl	-4(%rbp), %eax
	cltd
	xorl	%edx, %eax
	subl	%edx, %eax
	cmpl	%eax, -60(%rbp)
	jl	.L411
	movl	-28(%rbp), %eax
	subl	-4(%rbp), %eax
	cltd
	xorl	%edx, %eax
	subl	%edx, %eax
	cmpl	%eax, -60(%rbp)
	sete	%al
	movzbl	%al, %edx
	movl	-28(%rbp), %eax
	cmpl	-4(%rbp), %eax
	setl	%al
	movzbl	%al, %eax
	andl	%edx, %eax
	testl	%eax, %eax
	jne	.L433
	movl	-28(%rbp), %eax
	subl	-4(%rbp), %eax
	movl	%eax, %edx
	movl	%edx, %eax
	sarl	$31, %eax
	xorl	%eax, %edx
	movl	%edx, -60(%rbp)
	subl	%eax, -60(%rbp)
	movl	-28(%rbp), %eax
	movl	%eax, -112(%rbp)
	movl	-12(%rbp), %eax
	subl	$1, %eax
	movl	%eax, -44(%rbp)
	movl	-16(%rbp), %eax
	subl	$1, %eax
	movl	%eax, -48(%rbp)
	movl	-20(%rbp), %eax
	subl	$1, %eax
	movl	%eax, -52(%rbp)
	movl	-24(%rbp), %eax
	subl	$1, %eax
	movl	%eax, -56(%rbp)
	cmpl	$0, -60(%rbp)
	je	.L426
.L411:
	movl	-28(%rbp), %eax
	cmpl	-4(%rbp), %eax
	jg	.L432
	sall	-28(%rbp)
	addl	$1, -12(%rbp)
	jmp	.L413
.L432:
	nop
	jmp	.L410
.L433:
	nop
.L410:
	movl	-32(%rbp), %edx
	movl	%edx, %eax
	addl	%eax, %eax
	addl	%edx, %eax
	movl	%eax, -32(%rbp)
	addl	$1, -16(%rbp)
	jmp	.L414
.L430:
	nop
	jmp	.L408
.L431:
	nop
.L408:
	movl	-36(%rbp), %edx
	movl	%edx, %eax
	sall	$2, %eax
	addl	%edx, %eax
	movl	%eax, -36(%rbp)
	addl	$1, -20(%rbp)
	jmp	.L415
.L428:
	nop
	jmp	.L406
.L429:
	nop
.L406:
	movl	-40(%rbp), %edx
	movl	%edx, %eax
	sall	$3, %eax
	subl	%edx, %eax
	movl	%eax, -40(%rbp)
	addl	$1, -24(%rbp)
	jmp	.L416
.L426:
	nop
	jmp	.L404
.L427:
	nop
.L404:
	movq	-120(%rbp), %rax
	movl	(%rax), %eax
	cmpl	%eax, -4(%rbp)
	je	.L417
	movl	-112(%rbp), %eax
	cmpl	%eax, -4(%rbp)
	jl	.L418
	movl	-112(%rbp), %eax
	imull	$100, %eax, %eax
	movl	%eax, -112(%rbp)
	addl	$2, -44(%rbp)
	addl	$2, -52(%rbp)
	jmp	.L417
.L418:
	movq	-120(%rbp), %rax
	movl	(%rax), %eax
	movslq	%eax, %rdx
	imulq	$1402438301, %rdx, %rdx
	shrq	$32, %rdx
	sarl	$5, %edx
	sarl	$31, %eax
	subl	%eax, %edx
	movl	-112(%rbp), %eax
	cmpl	%eax, %edx
	jl	.L419
	movl	-112(%rbp), %eax
	imull	$98, %eax, %eax
	movl	%eax, -112(%rbp)
	addl	$1, -44(%rbp)
	addl	$2, -56(%rbp)
	jmp	.L417
.L419:
	movl	-112(%rbp), %eax
	imull	$70, %eax, %eax
	movl	%eax, -112(%rbp)
	addl	$1, -44(%rbp)
	addl	$1, -52(%rbp)
	addl	$1, -56(%rbp)
.L417:
	movl	-44(%rbp), %eax
	imull	$-72, %eax, %edx
	movl	-48(%rbp), %eax
	imull	$-114, %eax, %eax
	addl	%eax, %edx
	movl	-52(%rbp), %eax
	imull	$-167, %eax, %eax
	addl	%eax, %edx
	movl	-56(%rbp), %eax
	imull	$-202, %eax, %eax
	addl	%edx, %eax
	movl	%eax, -88(%rbp)
	movl	-44(%rbp), %eax
	imull	$-27, %eax, %edx
	movl	-48(%rbp), %eax
	imull	$-43, %eax, %eax
	addl	%eax, %edx
	movl	-52(%rbp), %eax
	movl	%eax, %ecx
	sall	$6, %eax
	subl	%eax, %ecx
	movl	%ecx, %eax
	addl	%eax, %edx
	movl	-56(%rbp), %eax
	imull	$-76, %eax, %eax
	addl	%edx, %eax
	movl	%eax, -92(%rbp)
	movl	-44(%rbp), %edx
	movl	%edx, %eax
	sall	$3, %eax
	addl	%edx, %eax
	addl	%eax, %eax
	addl	%eax, %edx
	movl	-48(%rbp), %eax
	imull	$30, %eax, %eax
	addl	%eax, %edx
	movl	-52(%rbp), %eax
	imull	$44, %eax, %eax
	addl	%eax, %edx
	movl	-56(%rbp), %eax
	imull	$53, %eax, %eax
	addl	%edx, %eax
	movl	%eax, -96(%rbp)
	movl	-44(%rbp), %eax
	movl	%eax, %edx
	sall	$5, %eax
	subl	%eax, %edx
	movl	-48(%rbp), %eax
	imull	$-49, %eax, %eax
	addl	%eax, %edx
	movl	-52(%rbp), %eax
	imull	$-72, %eax, %eax
	addl	%eax, %edx
	movl	-56(%rbp), %eax
	imull	$-87, %eax, %eax
	addl	%edx, %eax
	movl	%eax, -100(%rbp)
	movl	4+fmuser_(%rip), %edx
	movl	28+fmsave_(%rip), %eax
	cmpl	%eax, %edx
	setne	%al
	movzbl	%al, %edx
	movl	fmuser_(%rip), %ecx
	movl	24+fmsave_(%rip), %eax
	cmpl	%eax, %ecx
	setg	%al
	movzbl	%al, %eax
	orl	%edx, %eax
	testl	%eax, %eax
	je	.L420
	movl	fmuser_(%rip), %eax
	movl	%eax, -84(%rbp)
	movl	fmuser_(%rip), %eax
	leal	2(%rax), %edx
	movl	2656+fm_(%rip), %eax
	cmpl	%eax, %edx
	cmovle	%edx, %eax
	movl	%eax, fmuser_(%rip)
	movl	4+fmuser_(%rip), %eax
	movl	%eax, 28+fmsave_(%rip)
	movl	fmuser_(%rip), %eax
	movl	%eax, 24+fmsave_(%rip)
	leaq	3956+fmsave_(%rip), %rdx
	leaq	.LC38(%rip), %rsi
	leaq	.LC6(%rip), %rdi
	call	fmlni2_
	leaq	5264+fmsave_(%rip), %rdx
	leaq	.LC39(%rip), %rsi
	leaq	.LC6(%rip), %rdi
	call	fmlni2_
	leaq	6572+fmsave_(%rip), %rdx
	leaq	.LC40(%rip), %rsi
	leaq	.LC6(%rip), %rdi
	call	fmlni2_
	leaq	7880+fmsave_(%rip), %rdx
	leaq	.LC41(%rip), %rsi
	leaq	.LC6(%rip), %rdi
	call	fmlni2_
	movl	-84(%rbp), %eax
	movl	%eax, fmuser_(%rip)
.L420:
	movq	-120(%rbp), %rax
	movl	(%rax), %edx
	movl	-112(%rbp), %eax
	cmpl	%eax, %edx
	je	.L421
	movl	-112(%rbp), %edx
	movq	-120(%rbp), %rax
	movl	(%rax), %eax
	subl	%eax, %edx
	movl	%edx, %eax
	movl	%eax, -104(%rbp)
	movq	-128(%rbp), %rdx
	leaq	-112(%rbp), %rcx
	leaq	-104(%rbp), %rax
	movq	%rcx, %rsi
	movq	%rax, %rdi
	call	fmlni2_
.L421:
	leaq	-88(%rbp), %rax
	leaq	1308+fm1_(%rip), %rdx
	movq	%rax, %rsi
	leaq	3956+fmsave_(%rip), %rdi
	call	fmmpyi_
	leaq	-92(%rbp), %rax
	leaq	fm1_(%rip), %rdx
	movq	%rax, %rsi
	leaq	5264+fmsave_(%rip), %rdi
	call	fmmpyi_
	leaq	1308+fm1_(%rip), %rdx
	leaq	fm1_(%rip), %rsi
	leaq	1308+fm1_(%rip), %rdi
	call	fmadd_
	leaq	-96(%rbp), %rax
	leaq	fm1_(%rip), %rdx
	movq	%rax, %rsi
	leaq	6572+fmsave_(%rip), %rdi
	call	fmmpyi_
	leaq	1308+fm1_(%rip), %rdx
	leaq	fm1_(%rip), %rsi
	leaq	1308+fm1_(%rip), %rdi
	call	fmadd_
	leaq	-100(%rbp), %rax
	leaq	fm1_(%rip), %rdx
	movq	%rax, %rsi
	leaq	7880+fmsave_(%rip), %rdi
	call	fmmpyi_
	movq	-120(%rbp), %rax
	movl	(%rax), %edx
	movl	-112(%rbp), %eax
	cmpl	%eax, %edx
	je	.L422
	movq	-128(%rbp), %rax
	leaq	1308+fm1_(%rip), %rdx
	movq	%rax, %rsi
	leaq	1308+fm1_(%rip), %rdi
	call	fmadd_
.L422:
	movq	-128(%rbp), %rax
	movq	%rax, %rdx
	leaq	fm1_(%rip), %rsi
	leaq	1308+fm1_(%rip), %rdi
	call	fmadd_
	leaq	-108(%rbp), %rdx
	movq	-128(%rbp), %rsi
	movq	-128(%rbp), %rax
	movq	%rdx, %rcx
	leaq	fmuser_(%rip), %rdx
	movq	%rax, %rdi
	call	fmequ_
	movl	-108(%rbp), %eax
	movl	%eax, fmuser_(%rip)
	movl	24+fmuser_(%rip), %eax
	testl	%eax, %eax
	je	.L423
	movq	-128(%rbp), %rdx
	movq	-128(%rbp), %rax
	leaq	.LC6(%rip), %rcx
	movq	%rax, %rsi
	leaq	.LC6(%rip), %rdi
	call	fmntr_
.L423:
	movl	2616+fm_(%rip), %eax
	subl	$1, %eax
	movl	%eax, 2616+fm_(%rip)
	movl	-72(%rbp), %eax
	movl	%eax, 2628+fm_(%rip)
	nop
.L392:
	leave
	.cfi_def_cfa 7, 8
	ret
	.cfi_endproc
.LFE32:
	.size	fmlni_, .-fmlni_
	.section	.rodata
	.align 4
.LC42:
	.long	21
	.text
	.globl	fmln_
	.type	fmln_, @function
fmln_:
.LFB33:
	.cfi_startproc
	pushq	%rbp
	.cfi_def_cfa_offset 16
	.cfi_offset 6, -16
	movq	%rsp, %rbp
	.cfi_def_cfa_register 6
	pushq	%rbx
	subq	$200, %rsp
	.cfi_offset 3, -24
	movq	%rdi, -200(%rbp)
	movq	%rsi, -208(%rbp)
	leaq	-80(%rbp), %rdi
	movq	-208(%rbp), %rsi
	movq	-200(%rbp), %rdx
	movq	-200(%rbp), %rax
	leaq	-76(%rbp), %rcx
	pushq	%rcx
	leaq	-68(%rbp), %rcx
	pushq	%rcx
	leaq	-92(%rbp), %rcx
	pushq	%rcx
	leaq	-96(%rbp), %rcx
	pushq	%rcx
	movq	%rdi, %r9
	movq	%rsi, %r8
	leaq	.LC6(%rip), %rcx
	movq	%rax, %rsi
	leaq	.LC42(%rip), %rdi
	call	fmentr_
	addq	$32, %rsp
	movl	-80(%rbp), %eax
	testl	%eax, %eax
	jne	.L434
	movq	-200(%rbp), %rax
	movl	(%rax), %eax
	cmpl	$1, %eax
	sete	%al
	movzbl	%al, %edx
	movq	-200(%rbp), %rax
	movl	4(%rax), %eax
	cmpl	$1, %eax
	sete	%al
	movzbl	%al, %eax
	andl	%eax, %edx
	movq	-200(%rbp), %rax
	movl	8(%rax), %eax
	testl	%eax, %eax
	sete	%al
	movzbl	%al, %eax
	movl	%edx, %esi
	andl	%eax, %esi
	movq	-200(%rbp), %rax
	movl	(%rax), %eax
	testl	%eax, %eax
	sete	%al
	movzbl	%al, %edx
	movq	-200(%rbp), %rax
	movl	4(%rax), %eax
	movl	4+fmuser_(%rip), %ecx
	subl	$1, %ecx
	cmpl	%ecx, %eax
	sete	%al
	movzbl	%al, %eax
	andl	%edx, %eax
	orl	%esi, %eax
	testl	%eax, %eax
	je	.L437
	leaq	-96(%rbp), %rdx
	movq	-200(%rbp), %rax
	leaq	fmuser_(%rip), %rcx
	leaq	2616+fm1_(%rip), %rsi
	movq	%rax, %rdi
	call	fmequ_
	leaq	fm1_(%rip), %rsi
	leaq	.LC15(%rip), %rdi
	call	fmi2m_
	leaq	2616+fm1_(%rip), %rdx
	leaq	fm1_(%rip), %rsi
	leaq	2616+fm1_(%rip), %rdi
	call	fmadd_
	movl	fmuser_(%rip), %eax
	movl	%eax, -52(%rbp)
	leaq	fmuser_(%rip), %rcx
	leaq	fmuser_(%rip), %rdx
	leaq	3924+fm1_(%rip), %rsi
	leaq	2616+fm1_(%rip), %rdi
	call	fmequ_
	leaq	5232+fm1_(%rip), %rdx
	leaq	.LC11(%rip), %rsi
	leaq	2616+fm1_(%rip), %rdi
	call	fmdivi_
	movq	-208(%rbp), %rax
	movq	%rax, %rdx
	leaq	2616+fm1_(%rip), %rsi
	leaq	2616+fm1_(%rip), %rdi
	call	fmmpy_
	leaq	fmuser_(%rip), %rcx
	leaq	fmuser_(%rip), %rdx
	leaq	1308+fm1_(%rip), %rsi
	leaq	2616+fm1_(%rip), %rdi
	call	fmequ_
	movl	$2, -72(%rbp)
	jmp	.L438
.L463:
	nop
.L438:
	movl	-72(%rbp), %eax
	addl	$1, %eax
	movl	%eax, -72(%rbp)
	movq	-208(%rbp), %rax
	leaq	1308+fm1_(%rip), %rdx
	movq	%rax, %rsi
	leaq	1308+fm1_(%rip), %rdi
	call	fmmpy_
	leaq	-72(%rbp), %rax
	leaq	fm1_(%rip), %rdx
	movq	%rax, %rsi
	leaq	1308+fm1_(%rip), %rdi
	call	fmdivi_
	movl	-52(%rbp), %eax
	movl	%eax, fmuser_(%rip)
	leaq	3924+fm1_(%rip), %rdx
	leaq	fm1_(%rip), %rsi
	leaq	3924+fm1_(%rip), %rdi
	call	fmadd_
	movl	$2, %edx
	movl	3924+fm1_(%rip), %ecx
	movl	fm1_(%rip), %eax
	subl	%eax, %ecx
	movl	-52(%rbp), %eax
	subl	%ecx, %eax
	cmpl	%edx, %eax
	cmovl	%edx, %eax
	movl	%eax, fmuser_(%rip)
	movl	-72(%rbp), %eax
	addl	$1, %eax
	movl	%eax, -72(%rbp)
	leaq	-72(%rbp), %rax
	leaq	fm1_(%rip), %rdx
	movq	%rax, %rsi
	leaq	1308+fm1_(%rip), %rdi
	call	fmdivi_
	movl	-52(%rbp), %eax
	movl	%eax, fmuser_(%rip)
	leaq	5232+fm1_(%rip), %rdx
	leaq	fm1_(%rip), %rsi
	leaq	5232+fm1_(%rip), %rdi
	call	fmadd_
	movl	$2, %edx
	movl	3924+fm1_(%rip), %ecx
	movl	fm1_(%rip), %eax
	subl	%eax, %ecx
	movl	-52(%rbp), %eax
	subl	%ecx, %eax
	cmpl	%edx, %eax
	cmovl	%edx, %eax
	movl	%eax, fmuser_(%rip)
	movl	32+fmuser_(%rip), %eax
	cmpl	$1, %eax
	jne	.L463
	movl	-52(%rbp), %eax
	movl	%eax, fmuser_(%rip)
	leaq	5232+fm1_(%rip), %rdx
	leaq	2616+fm1_(%rip), %rsi
	leaq	5232+fm1_(%rip), %rdi
	call	fmmpy_
	movq	-208(%rbp), %rax
	movq	%rax, %rdx
	leaq	5232+fm1_(%rip), %rsi
	leaq	3924+fm1_(%rip), %rdi
	call	fmsub_
	jmp	.L439
.L437:
	movl	$0, -24(%rbp)
	movq	-200(%rbp), %rax
	movl	(%rax), %eax
	movl	%eax, -32(%rbp)
	leaq	-96(%rbp), %rdx
	movq	-200(%rbp), %rax
	leaq	fmuser_(%rip), %rcx
	leaq	5232+fm1_(%rip), %rsi
	movq	%rax, %rdi
	call	fmequ_
	movl	36+fmuser_(%rip), %eax
	movl	%eax, -36(%rbp)
	movl	$0, 36+fmuser_(%rip)
	leaq	-56(%rbp), %rax
	movq	%rax, %rsi
	leaq	5232+fm1_(%rip), %rdi
	call	fmm2i_
	movl	-36(%rbp), %eax
	movl	%eax, 36+fmuser_(%rip)
	movl	32+fmuser_(%rip), %eax
	testl	%eax, %eax
	sete	%al
	movzbl	%al, %edx
	movl	-56(%rbp), %ecx
	movl	2652+fm_(%rip), %eax
	cmpl	%eax, %ecx
	setl	%al
	movzbl	%al, %eax
	andl	%edx, %eax
	testl	%eax, %eax
	je	.L440
	movq	-208(%rbp), %rdx
	leaq	-56(%rbp), %rax
	movq	%rdx, %rsi
	movq	%rax, %rdi
	call	fmlni_
	jmp	.L439
.L440:
	movl	fmuser_(%rip), %eax
	addl	$3, %eax
	movl	%eax, -40(%rbp)
	movl	fmuser_(%rip), %eax
	addl	$1, %eax
	movl	%eax, -44(%rbp)
	movl	-44(%rbp), %eax
	movl	$2, -20(%rbp)
.L443:
	cmpl	%eax, -20(%rbp)
	setg	%dl
	movzbl	%dl, %edx
	testl	%edx, %edx
	jne	.L464
	movl	-40(%rbp), %edx
	subl	-20(%rbp), %edx
	movslq	%edx, %rdx
	subq	$1, %rdx
	addq	$1308, %rdx
	leaq	0(,%rdx,4), %rcx
	leaq	fm1_(%rip), %rdx
	movl	(%rcx,%rdx), %edx
	testl	%edx, %edx
	je	.L442
	movl	-40(%rbp), %eax
	subl	-20(%rbp), %eax
	subl	$1, %eax
	movl	%eax, -28(%rbp)
	jmp	.L441
.L442:
	addl	$1, -20(%rbp)
	jmp	.L443
.L464:
	nop
.L441:
	movl	-32(%rbp), %eax
	subl	-28(%rbp), %eax
	movl	%eax, -84(%rbp)
	movl	-28(%rbp), %eax
	movl	%eax, 5232+fm1_(%rip)
	movl	36+fmuser_(%rip), %eax
	movl	%eax, -36(%rbp)
	movl	$0, 36+fmuser_(%rip)
	leaq	-56(%rbp), %rax
	movq	%rax, %rsi
	leaq	5232+fm1_(%rip), %rdi
	call	fmm2i_
	movl	-36(%rbp), %eax
	movl	%eax, 36+fmuser_(%rip)
	movl	32+fmuser_(%rip), %eax
	testl	%eax, %eax
	sete	%al
	movzbl	%al, %edx
	movl	-56(%rbp), %ecx
	movl	2652+fm_(%rip), %eax
	cmpl	%eax, %ecx
	setl	%al
	movzbl	%al, %eax
	andl	%edx, %eax
	testl	%eax, %eax
	je	.L444
	leaq	-56(%rbp), %rax
	leaq	3924+fm1_(%rip), %rsi
	movq	%rax, %rdi
	call	fmlni_
	movl	-56(%rbp), %eax
	cmpl	$1, %eax
	jne	.L445
	movl	$1, -24(%rbp)
.L445:
	movl	$0, -64(%rbp)
	jmp	.L446
.L444:
	movl	$1, 5232+fm1_(%rip)
	movl	-32(%rbp), %eax
	subl	$1, %eax
	movl	%eax, -84(%rbp)
	leaq	-184(%rbp), %rax
	movq	%rax, %rsi
	leaq	5232+fm1_(%rip), %rdi
	call	fmm2dp_
	movsd	-184(%rbp), %xmm0
	addsd	%xmm0, %xmm0
	movsd	.LC43(%rip), %xmm1
	divsd	%xmm1, %xmm0
	call	log@PLT
	movsd	.LC44(%rip), %xmm1
	divsd	%xmm1, %xmm0
	cvttsd2sil	%xmm0, %eax
	movl	%eax, -64(%rbp)
	movsd	-184(%rbp), %xmm1
	movsd	.LC45(%rip), %xmm0
	comisd	%xmm1, %xmm0
	jbe	.L462
	movl	$-1, -64(%rbp)
	leaq	5232+fm1_(%rip), %rdx
	leaq	.LC11(%rip), %rsi
	leaq	5232+fm1_(%rip), %rdi
	call	fmmpyi_
	movsd	-184(%rbp), %xmm0
	addsd	%xmm0, %xmm0
	movsd	%xmm0, -184(%rbp)
	jmp	.L449
.L462:
	movl	-64(%rbp), %eax
	cmpl	$31, %eax
	jg	.L450
	movl	-64(%rbp), %eax
	testl	%eax, %eax
	js	.L451
	movl	-64(%rbp), %eax
	movl	$1, %edx
	movl	%eax, %ecx
	sall	%cl, %edx
	movl	%edx, %eax
	jmp	.L453
.L451:
	movl	$0, %eax
	jmp	.L453
.L450:
	movl	$0, %eax
.L453:
	movl	%eax, -60(%rbp)
	leaq	-60(%rbp), %rax
	leaq	5232+fm1_(%rip), %rdx
	movq	%rax, %rsi
	leaq	5232+fm1_(%rip), %rdi
	call	fmdivi_
	movsd	-184(%rbp), %xmm0
	movl	-60(%rbp), %eax
	cvtsi2sdl	%eax, %xmm1
	divsd	%xmm1, %xmm0
	movsd	%xmm0, -184(%rbp)
.L449:
	movq	-184(%rbp), %rax
	movq	%rax, %xmm0
	call	log@PLT
	movq	%xmm0, %rax
	movq	%rax, -184(%rbp)
	leaq	-184(%rbp), %rax
	leaq	3924+fm1_(%rip), %rsi
	movq	%rax, %rdi
	call	fmdp2m_
	movq	-208(%rbp), %rax
	movq	%rax, %rsi
	leaq	.LC6(%rip), %rdi
	call	fmi2m_
	leaq	-88(%rbp), %rdx
	leaq	-176(%rbp), %rax
	movq	%rdx, %rsi
	movq	%rax, %rdi
	call	fmdig_
	movl	-88(%rbp), %ebx
	movl	$1, -20(%rbp)
.L454:
	cmpl	%ebx, -20(%rbp)
	setg	%al
	movzbl	%al, %eax
	testl	%eax, %eax
	jne	.L465
	movl	-20(%rbp), %eax
	cltq
	subq	$1, %rax
	movl	-176(%rbp,%rax,4), %eax
	movl	%eax, fmuser_(%rip)
	movq	-208(%rbp), %rax
	movq	%rax, %rsi
	leaq	3924+fm1_(%rip), %rdi
	call	fmexp_
	movq	-208(%rbp), %rax
	leaq	1308+fm1_(%rip), %rdx
	movq	%rax, %rsi
	leaq	5232+fm1_(%rip), %rdi
	call	fmsub_
	movq	-208(%rbp), %rdx
	movq	-208(%rbp), %rax
	movq	%rax, %rsi
	leaq	1308+fm1_(%rip), %rdi
	call	fmdiv_
	movq	-208(%rbp), %rax
	leaq	3924+fm1_(%rip), %rdx
	movq	%rax, %rsi
	leaq	3924+fm1_(%rip), %rdi
	call	fmadd_
	addl	$1, -20(%rbp)
	jmp	.L454
.L465:
	nop
.L446:
	movl	20+fmsave_(%rip), %edx
	movl	4+fmuser_(%rip), %eax
	cmpl	%eax, %edx
	setne	%al
	movzbl	%al, %edx
	movl	16+fmsave_(%rip), %ecx
	movl	fmuser_(%rip), %eax
	cmpl	%eax, %ecx
	setl	%al
	movzbl	%al, %eax
	orl	%eax, %edx
	movl	-84(%rbp), %eax
	testl	%eax, %eax
	setne	%al
	movzbl	%al, %eax
	andl	%edx, %eax
	testl	%eax, %eax
	je	.L455
	movl	fmuser_(%rip), %eax
	movl	%eax, -48(%rbp)
	movl	fmuser_(%rip), %eax
	leal	2(%rax), %edx
	movl	2656+fm_(%rip), %eax
	cmpl	%eax, %edx
	cmovle	%edx, %eax
	movl	%eax, fmuser_(%rip)
	leaq	2648+fmsave_(%rip), %rsi
	leaq	4+fmuser_(%rip), %rdi
	call	fmlni_
	movl	4+fmuser_(%rip), %eax
	movl	%eax, 20+fmsave_(%rip)
	movl	fmuser_(%rip), %eax
	movl	%eax, 16+fmsave_(%rip)
	movl	-48(%rbp), %eax
	movl	%eax, fmuser_(%rip)
.L455:
	movl	-84(%rbp), %eax
	testl	%eax, %eax
	setne	%al
	movzbl	%al, %edx
	cmpl	$0, -24(%rbp)
	sete	%al
	movzbl	%al, %eax
	andl	%edx, %eax
	testl	%eax, %eax
	je	.L456
	movq	-208(%rbp), %rdx
	leaq	-84(%rbp), %rax
	movq	%rax, %rsi
	leaq	2648+fmsave_(%rip), %rdi
	call	fmmpyi_
	movq	-208(%rbp), %rdx
	movq	-208(%rbp), %rax
	movq	%rax, %rsi
	leaq	3924+fm1_(%rip), %rdi
	call	fmadd_
	jmp	.L457
.L456:
	movl	-84(%rbp), %eax
	testl	%eax, %eax
	setne	%al
	movzbl	%al, %edx
	cmpl	$1, -24(%rbp)
	sete	%al
	movzbl	%al, %eax
	andl	%edx, %eax
	testl	%eax, %eax
	je	.L458
	movq	-208(%rbp), %rdx
	leaq	-84(%rbp), %rax
	movq	%rax, %rsi
	leaq	2648+fmsave_(%rip), %rdi
	call	fmmpyi_
	jmp	.L457
.L458:
	movl	-84(%rbp), %eax
	testl	%eax, %eax
	sete	%al
	movzbl	%al, %edx
	cmpl	$0, -24(%rbp)
	sete	%al
	movzbl	%al, %eax
	andl	%edx, %eax
	testl	%eax, %eax
	je	.L459
	movq	-208(%rbp), %rax
	leaq	fmuser_(%rip), %rcx
	leaq	fmuser_(%rip), %rdx
	movq	%rax, %rsi
	leaq	3924+fm1_(%rip), %rdi
	call	fmequ_
	jmp	.L457
.L459:
	movl	-84(%rbp), %eax
	testl	%eax, %eax
	sete	%al
	movzbl	%al, %edx
	cmpl	$1, -24(%rbp)
	sete	%al
	movzbl	%al, %eax
	andl	%edx, %eax
	testl	%eax, %eax
	je	.L457
	movq	-208(%rbp), %rax
	movq	%rax, %rsi
	leaq	.LC5(%rip), %rdi
	call	fmi2m_
.L457:
	movl	-64(%rbp), %eax
	testl	%eax, %eax
	je	.L439
	leaq	3924+fm1_(%rip), %rsi
	leaq	.LC11(%rip), %rdi
	call	fmlni_
	leaq	-64(%rbp), %rax
	leaq	3924+fm1_(%rip), %rdx
	movq	%rax, %rsi
	leaq	3924+fm1_(%rip), %rdi
	call	fmmpyi_
	movq	-208(%rbp), %rdx
	movq	-208(%rbp), %rax
	leaq	3924+fm1_(%rip), %rsi
	movq	%rax, %rdi
	call	fmadd_
.L439:
	leaq	-76(%rbp), %r8
	leaq	-68(%rbp), %rdi
	leaq	-92(%rbp), %rcx
	leaq	-96(%rbp), %rdx
	movq	-208(%rbp), %rsi
	movq	-208(%rbp), %rax
	movq	%r8, %r9
	movq	%rdi, %r8
	movq	%rax, %rdi
	call	fmexit_
	nop
.L434:
	movq	-8(%rbp), %rbx
	leave
	.cfi_def_cfa 7, 8
	ret
	.cfi_endproc
.LFE33:
	.size	fmln_, .-fmln_
	.section	.rodata
	.align 4
.LC46:
	.long	20
	.align 4
.LC47:
	.long	10
	.text
	.globl	fmlg10_
	.type	fmlg10_, @function
fmlg10_:
.LFB34:
	.cfi_startproc
	pushq	%rbp
	.cfi_def_cfa_offset 16
	.cfi_offset 6, -16
	movq	%rsp, %rbp
	.cfi_def_cfa_register 6
	subq	$48, %rsp
	movq	%rdi, -40(%rbp)
	movq	%rsi, -48(%rbp)
	leaq	-12(%rbp), %rdi
	movq	-48(%rbp), %rsi
	movq	-40(%rbp), %rdx
	movq	-40(%rbp), %rax
	leaq	-8(%rbp), %rcx
	pushq	%rcx
	leaq	-4(%rbp), %rcx
	pushq	%rcx
	leaq	-16(%rbp), %rcx
	pushq	%rcx
	leaq	-20(%rbp), %rcx
	pushq	%rcx
	movq	%rdi, %r9
	movq	%rsi, %r8
	leaq	.LC6(%rip), %rcx
	movq	%rax, %rsi
	leaq	.LC46(%rip), %rdi
	call	fmentr_
	addq	$32, %rsp
	movl	-12(%rbp), %eax
	testl	%eax, %eax
	jne	.L466
	leaq	-20(%rbp), %rdx
	movq	-48(%rbp), %rsi
	movq	-40(%rbp), %rax
	leaq	fmuser_(%rip), %rcx
	movq	%rax, %rdi
	call	fmequ_
	movq	-48(%rbp), %rdx
	movq	-48(%rbp), %rax
	movq	%rdx, %rsi
	movq	%rax, %rdi
	call	fmln_
	leaq	2616+fm1_(%rip), %rsi
	leaq	.LC47(%rip), %rdi
	call	fmlni_
	movq	-48(%rbp), %rdx
	movq	-48(%rbp), %rax
	leaq	2616+fm1_(%rip), %rsi
	movq	%rax, %rdi
	call	fmdiv_
	leaq	-8(%rbp), %r8
	leaq	-4(%rbp), %rdi
	leaq	-16(%rbp), %rcx
	leaq	-20(%rbp), %rdx
	movq	-48(%rbp), %rsi
	movq	-48(%rbp), %rax
	movq	%r8, %r9
	movq	%rdi, %r8
	movq	%rax, %rdi
	call	fmexit_
	nop
.L466:
	leave
	.cfi_def_cfa 7, 8
	ret
	.cfi_endproc
.LFE34:
	.size	fmlg10_, .-fmlg10_
	.globl	fmipwr_
	.type	fmipwr_, @function
fmipwr_:
.LFB35:
	.cfi_startproc
	pushq	%rbp
	.cfi_def_cfa_offset 16
	.cfi_offset 6, -16
	movq	%rsp, %rbp
	.cfi_def_cfa_register 6
	subq	$80, %rsp
	movq	%rdi, -56(%rbp)
	movq	%rsi, -64(%rbp)
	movq	%rdx, -72(%rbp)
	movl	$0, 32+fmuser_(%rip)
	movl	2616+fm_(%rip), %eax
	addl	$1, %eax
	movl	%eax, 2616+fm_(%rip)
	movl	2616+fm_(%rip), %eax
	cltq
	subq	$1, %rax
	addq	$665, %rax
	leaq	0(,%rax,4), %rdx
	leaq	fm_(%rip), %rax
	movl	$19, (%rdx,%rax)
	movl	24+fmuser_(%rip), %eax
	testl	%eax, %eax
	je	.L471
	movq	-56(%rbp), %rdx
	movq	-56(%rbp), %rax
	leaq	.LC6(%rip), %rcx
	movq	%rax, %rsi
	leaq	.LC11(%rip), %rdi
	call	fmntr_
	movq	-64(%rbp), %rax
	leaq	.LC5(%rip), %rdx
	movq	%rax, %rsi
	leaq	.LC11(%rip), %rdi
	call	fmntri_
.L471:
	movq	-56(%rbp), %rax
	movl	(%rax), %edx
	movl	2640+fm_(%rip), %eax
	cmpl	%eax, %edx
	sete	%al
	movzbl	%al, %edx
	movq	-64(%rbp), %rax
	movl	(%rax), %eax
	testl	%eax, %eax
	setle	%al
	movzbl	%al, %ecx
	movq	-56(%rbp), %rax
	movl	4(%rax), %eax
	testl	%eax, %eax
	sete	%al
	movzbl	%al, %eax
	andl	%ecx, %eax
	orl	%edx, %eax
	testl	%eax, %eax
	je	.L472
	movq	-56(%rbp), %rax
	movl	4(%rax), %eax
	movl	%eax, -32(%rbp)
	movq	-72(%rbp), %rax
	movq	%rax, %rsi
	leaq	.LC5(%rip), %rdi
	call	fmim_
	movl	2640+fm_(%rip), %edx
	movq	-72(%rbp), %rax
	movl	%edx, (%rax)
	movq	-72(%rbp), %rax
	movl	$1, 4(%rax)
	movl	$-4, 32+fmuser_(%rip)
	movq	-64(%rbp), %rax
	movl	(%rax), %eax
	testl	%eax, %eax
	setle	%al
	movzbl	%al, %edx
	cmpl	$0, -32(%rbp)
	sete	%al
	movzbl	%al, %eax
	andl	%edx, %eax
	testl	%eax, %eax
	je	.L473
	call	fmwarn_
.L473:
	movl	24+fmuser_(%rip), %eax
	testl	%eax, %eax
	je	.L474
	movq	-72(%rbp), %rdx
	movq	-72(%rbp), %rax
	leaq	.LC6(%rip), %rcx
	movq	%rax, %rsi
	leaq	.LC6(%rip), %rdi
	call	fmntr_
.L474:
	movl	2616+fm_(%rip), %eax
	subl	$1, %eax
	movl	%eax, 2616+fm_(%rip)
	jmp	.L470
.L472:
	movq	-64(%rbp), %rax
	movl	(%rax), %eax
	testl	%eax, %eax
	jne	.L476
	movq	-72(%rbp), %rax
	movq	%rax, %rsi
	leaq	.LC6(%rip), %rdi
	call	fmim_
	movl	24+fmuser_(%rip), %eax
	testl	%eax, %eax
	je	.L477
	movq	-72(%rbp), %rdx
	movq	-72(%rbp), %rax
	leaq	.LC6(%rip), %rcx
	movq	%rax, %rsi
	leaq	.LC6(%rip), %rdi
	call	fmntr_
.L477:
	movl	2616+fm_(%rip), %eax
	subl	$1, %eax
	movl	%eax, 2616+fm_(%rip)
	jmp	.L470
.L476:
	movq	-64(%rbp), %rax
	movl	(%rax), %eax
	cltd
	xorl	%edx, %eax
	subl	%edx, %eax
	cmpl	$1, %eax
	jne	.L478
	movl	36+fmuser_(%rip), %eax
	movl	%eax, -28(%rbp)
	movl	$0, 36+fmuser_(%rip)
	movq	-64(%rbp), %rax
	movl	(%rax), %eax
	cmpl	$1, %eax
	jne	.L479
	movq	-72(%rbp), %rsi
	movq	-56(%rbp), %rax
	leaq	fmuser_(%rip), %rcx
	leaq	fmuser_(%rip), %rdx
	movq	%rax, %rdi
	call	fmequ_
	jmp	.L480
.L479:
	leaq	fm1_(%rip), %rsi
	leaq	.LC6(%rip), %rdi
	call	fmim_
	movq	-72(%rbp), %rdx
	movq	-56(%rbp), %rax
	movq	%rax, %rsi
	leaq	fm1_(%rip), %rdi
	call	fmdiv_
.L480:
	movl	24+fmuser_(%rip), %eax
	testl	%eax, %eax
	je	.L481
	movq	-72(%rbp), %rdx
	movq	-72(%rbp), %rax
	leaq	.LC6(%rip), %rcx
	movq	%rax, %rsi
	leaq	.LC6(%rip), %rdi
	call	fmntr_
.L481:
	movl	2616+fm_(%rip), %eax
	subl	$1, %eax
	movl	%eax, 2616+fm_(%rip)
	movl	-28(%rbp), %eax
	movl	%eax, 36+fmuser_(%rip)
	jmp	.L470
.L478:
	movq	-56(%rbp), %rax
	movl	4(%rax), %eax
	testl	%eax, %eax
	jne	.L482
	movq	-72(%rbp), %rax
	movq	%rax, %rsi
	leaq	.LC5(%rip), %rdi
	call	fmim_
	movl	24+fmuser_(%rip), %eax
	testl	%eax, %eax
	je	.L483
	movq	-72(%rbp), %rdx
	movq	-72(%rbp), %rax
	leaq	.LC6(%rip), %rcx
	movq	%rax, %rsi
	leaq	.LC6(%rip), %rdi
	call	fmntr_
.L483:
	movl	2616+fm_(%rip), %eax
	subl	$1, %eax
	movl	%eax, 2616+fm_(%rip)
	jmp	.L470
.L482:
	movq	-56(%rbp), %rax
	movl	(%rax), %edx
	movl	2636+fm_(%rip), %eax
	cmpl	%eax, %edx
	jne	.L484
	movl	$1, -8(%rbp)
	movq	-56(%rbp), %rax
	movl	4(%rax), %eax
	testl	%eax, %eax
	jns	.L485
	movl	$-1, -8(%rbp)
.L485:
	movq	-72(%rbp), %rax
	movq	%rax, %rsi
	leaq	.LC5(%rip), %rdi
	call	fmim_
	movq	-64(%rbp), %rax
	movl	(%rax), %eax
	testl	%eax, %eax
	jle	.L486
	movl	2636+fm_(%rip), %edx
	movq	-72(%rbp), %rax
	movl	%edx, (%rax)
	movl	-8(%rbp), %ecx
	movq	-64(%rbp), %rax
	movl	(%rax), %eax
	cltd
	shrl	$31, %edx
	addl	%edx, %eax
	andl	$1, %eax
	subl	%edx, %eax
	movl	%eax, %esi
	movl	%ecx, %edi
	call	_gfortran_pow_i4_i4@PLT
	movq	-72(%rbp), %rdx
	movl	%eax, 4(%rdx)
	movl	$-5, 32+fmuser_(%rip)
	jmp	.L487
.L486:
	movl	2632+fm_(%rip), %edx
	movq	-72(%rbp), %rax
	movl	%edx, (%rax)
	movl	-8(%rbp), %ecx
	movq	-64(%rbp), %rax
	movl	(%rax), %eax
	cltd
	shrl	$31, %edx
	addl	%edx, %eax
	andl	$1, %eax
	subl	%edx, %eax
	movl	%eax, %esi
	movl	%ecx, %edi
	call	_gfortran_pow_i4_i4@PLT
	movq	-72(%rbp), %rdx
	movl	%eax, 4(%rdx)
	movl	$-6, 32+fmuser_(%rip)
.L487:
	movl	24+fmuser_(%rip), %eax
	testl	%eax, %eax
	je	.L488
	movq	-72(%rbp), %rdx
	movq	-72(%rbp), %rax
	leaq	.LC6(%rip), %rcx
	movq	%rax, %rsi
	leaq	.LC6(%rip), %rdi
	call	fmntr_
.L488:
	movl	2616+fm_(%rip), %eax
	subl	$1, %eax
	movl	%eax, 2616+fm_(%rip)
	jmp	.L470
.L484:
	movq	-56(%rbp), %rax
	movl	(%rax), %edx
	movl	2632+fm_(%rip), %eax
	cmpl	%eax, %edx
	jne	.L489
	movl	$1, -8(%rbp)
	movq	-56(%rbp), %rax
	movl	4(%rax), %eax
	testl	%eax, %eax
	jns	.L490
	movl	$-1, -8(%rbp)
.L490:
	movq	-72(%rbp), %rax
	movq	%rax, %rsi
	leaq	.LC5(%rip), %rdi
	call	fmim_
	movq	-64(%rbp), %rax
	movl	(%rax), %eax
	testl	%eax, %eax
	jle	.L491
	movl	2632+fm_(%rip), %edx
	movq	-72(%rbp), %rax
	movl	%edx, (%rax)
	movl	-8(%rbp), %ecx
	movq	-64(%rbp), %rax
	movl	(%rax), %eax
	cltd
	shrl	$31, %edx
	addl	%edx, %eax
	andl	$1, %eax
	subl	%edx, %eax
	movl	%eax, %esi
	movl	%ecx, %edi
	call	_gfortran_pow_i4_i4@PLT
	movq	-72(%rbp), %rdx
	movl	%eax, 4(%rdx)
	movl	$-6, 32+fmuser_(%rip)
	jmp	.L492
.L491:
	movl	2636+fm_(%rip), %edx
	movq	-72(%rbp), %rax
	movl	%edx, (%rax)
	movl	-8(%rbp), %ecx
	movq	-64(%rbp), %rax
	movl	(%rax), %eax
	cltd
	shrl	$31, %edx
	addl	%edx, %eax
	andl	$1, %eax
	subl	%edx, %eax
	movl	%eax, %esi
	movl	%ecx, %edi
	call	_gfortran_pow_i4_i4@PLT
	movq	-72(%rbp), %rdx
	movl	%eax, 4(%rdx)
	movl	$-5, 32+fmuser_(%rip)
.L492:
	movl	24+fmuser_(%rip), %eax
	testl	%eax, %eax
	je	.L493
	movq	-72(%rbp), %rdx
	movq	-72(%rbp), %rax
	leaq	.LC6(%rip), %rcx
	movq	%rax, %rsi
	leaq	.LC6(%rip), %rdi
	call	fmntr_
.L493:
	movl	2616+fm_(%rip), %eax
	subl	$1, %eax
	movl	%eax, 2616+fm_(%rip)
	jmp	.L470
.L489:
	movl	fmuser_(%rip), %eax
	movl	%eax, -36(%rbp)
	movl	2616+fm_(%rip), %eax
	cmpl	$1, %eax
	jne	.L494
	movl	4+fmuser_(%rip), %eax
	cvtsi2ssl	%eax, %xmm0
	movss	%xmm0, -16(%rbp)
	movq	-64(%rbp), %rax
	movl	(%rax), %eax
	cltd
	xorl	%edx, %eax
	subl	%edx, %eax
	cvtsi2ssl	%eax, %xmm0
	movss	%xmm0, -20(%rbp)
	movl	-20(%rbp), %eax
	movd	%eax, %xmm0
	call	logf@PLT
	movss	.LC28(%rip), %xmm1
	addss	%xmm1, %xmm0
	movss	%xmm0, -76(%rbp)
	movl	-16(%rbp), %eax
	movd	%eax, %xmm0
	call	logf@PLT
	movss	-76(%rbp), %xmm1
	divss	%xmm0, %xmm1
	movss	.LC29(%rip), %xmm0
	addss	%xmm1, %xmm0
	cvttss2sil	%xmm0, %eax
	movl	%eax, -12(%rbp)
	movl	fmuser_(%rip), %edx
	movl	-12(%rbp), %eax
	addl	%edx, %eax
	movl	$2, %edx
	cmpl	$2, %eax
	cmovl	%edx, %eax
	movl	%eax, fmuser_(%rip)
	movl	fmuser_(%rip), %edx
	movl	2656+fm_(%rip), %eax
	cmpl	%eax, %edx
	jle	.L494
	movl	$-9, 32+fmuser_(%rip)
	call	fmwarn_
	movl	2640+fm_(%rip), %edx
	movq	-72(%rbp), %rax
	movl	%edx, (%rax)
	movq	-72(%rbp), %rax
	movl	$1, 4(%rax)
	movl	-36(%rbp), %edx
	movl	$2, -4(%rbp)
.L496:
	cmpl	%edx, -4(%rbp)
	setg	%al
	movzbl	%al, %eax
	testl	%eax, %eax
	jne	.L506
	movl	-4(%rbp), %eax
	addl	$1, %eax
	cltq
	leaq	-1(%rax), %rcx
	movq	-72(%rbp), %rax
	movl	$0, (%rax,%rcx,4)
	addl	$1, -4(%rbp)
	jmp	.L496
.L506:
	nop
	movl	-36(%rbp), %eax
	movl	%eax, fmuser_(%rip)
	movl	24+fmuser_(%rip), %eax
	testl	%eax, %eax
	je	.L497
	movq	-72(%rbp), %rdx
	movq	-72(%rbp), %rax
	leaq	.LC6(%rip), %rcx
	movq	%rax, %rsi
	leaq	.LC6(%rip), %rdi
	call	fmntr_
.L497:
	movl	2616+fm_(%rip), %eax
	subl	$1, %eax
	movl	%eax, 2616+fm_(%rip)
	jmp	.L470
.L494:
	movl	36+fmuser_(%rip), %eax
	movl	%eax, -24(%rbp)
	movl	$0, 36+fmuser_(%rip)
	movq	-64(%rbp), %rax
	movl	(%rax), %edx
	movl	%edx, %eax
	sarl	$31, %eax
	xorl	%eax, %edx
	movl	%edx, -12(%rbp)
	subl	%eax, -12(%rbp)
	leaq	-36(%rbp), %rdx
	movq	-56(%rbp), %rax
	leaq	fmuser_(%rip), %rcx
	leaq	fm1_(%rip), %rsi
	movq	%rax, %rdi
	call	fmequ_
	movl	-12(%rbp), %eax
	andl	$1, %eax
	testl	%eax, %eax
	jne	.L498
	movq	-72(%rbp), %rax
	movq	%rax, %rsi
	leaq	.LC6(%rip), %rdi
	call	fmi2m_
	jmp	.L501
.L498:
	movq	-72(%rbp), %rax
	leaq	fmuser_(%rip), %rcx
	leaq	fmuser_(%rip), %rdx
	movq	%rax, %rsi
	leaq	fm1_(%rip), %rdi
	call	fmequ_
.L501:
	movl	-12(%rbp), %eax
	movl	%eax, %edx
	shrl	$31, %edx
	addl	%edx, %eax
	sarl	%eax
	movl	%eax, -12(%rbp)
	leaq	fm1_(%rip), %rdx
	leaq	fm1_(%rip), %rsi
	leaq	fm1_(%rip), %rdi
	call	fmmpy_
	movl	-12(%rbp), %eax
	cltd
	shrl	$31, %edx
	addl	%edx, %eax
	andl	$1, %eax
	subl	%edx, %eax
	cmpl	$1, %eax
	jne	.L500
	movq	-72(%rbp), %rdx
	movq	-72(%rbp), %rax
	movq	%rax, %rsi
	leaq	fm1_(%rip), %rdi
	call	fmmpy_
.L500:
	cmpl	$1, -12(%rbp)
	jg	.L501
	movq	-64(%rbp), %rax
	movl	(%rax), %eax
	testl	%eax, %eax
	jns	.L502
	leaq	fm1_(%rip), %rsi
	leaq	.LC6(%rip), %rdi
	call	fmi2m_
	movq	-72(%rbp), %rdx
	movq	-72(%rbp), %rax
	movq	%rax, %rsi
	leaq	fm1_(%rip), %rdi
	call	fmdiv_
.L502:
	movl	-24(%rbp), %eax
	movl	%eax, 36+fmuser_(%rip)
	leaq	-36(%rbp), %rdx
	movq	-72(%rbp), %rsi
	movq	-72(%rbp), %rax
	movq	%rdx, %rcx
	leaq	fmuser_(%rip), %rdx
	movq	%rax, %rdi
	call	fmequ_
	movl	-36(%rbp), %eax
	movl	%eax, fmuser_(%rip)
	movl	32+fmuser_(%rip), %eax
	testl	%eax, %eax
	jns	.L503
	call	fmwarn_
.L503:
	movl	24+fmuser_(%rip), %eax
	testl	%eax, %eax
	je	.L504
	movq	-72(%rbp), %rdx
	movq	-72(%rbp), %rax
	leaq	.LC6(%rip), %rcx
	movq	%rax, %rsi
	leaq	.LC6(%rip), %rdi
	call	fmntr_
.L504:
	movl	2616+fm_(%rip), %eax
	subl	$1, %eax
	movl	%eax, 2616+fm_(%rip)
	nop
.L470:
	leave
	.cfi_def_cfa 7, 8
	ret
	.cfi_endproc
.LFE35:
	.size	fmipwr_, .-fmipwr_
	.section	.rodata
	.align 4
.LC48:
	.long	18
	.text
	.globl	fmint_
	.type	fmint_, @function
fmint_:
.LFB36:
	.cfi_startproc
	pushq	%rbp
	.cfi_def_cfa_offset 16
	.cfi_offset 6, -16
	movq	%rsp, %rbp
	.cfi_def_cfa_register 6
	subq	$48, %rsp
	movq	%rdi, -40(%rbp)
	movq	%rsi, -48(%rbp)
	movl	$0, 32+fmuser_(%rip)
	movl	2616+fm_(%rip), %eax
	addl	$1, %eax
	movl	%eax, 2616+fm_(%rip)
	movl	2616+fm_(%rip), %eax
	cltq
	subq	$1, %rax
	addq	$665, %rax
	leaq	0(,%rax,4), %rdx
	leaq	fm_(%rip), %rax
	movl	$18, (%rdx,%rax)
	movl	24+fmuser_(%rip), %eax
	testl	%eax, %eax
	je	.L508
	movq	-40(%rbp), %rdx
	movq	-40(%rbp), %rax
	leaq	.LC6(%rip), %rcx
	movq	%rax, %rsi
	leaq	.LC11(%rip), %rdi
	call	fmntr_
.L508:
	movl	2628+fm_(%rip), %eax
	cmpl	$1, %eax
	je	.L509
	leaq	-20(%rbp), %rcx
	movq	-48(%rbp), %rdx
	movq	-40(%rbp), %rax
	movq	%rcx, %r8
	movq	%rdx, %rcx
	movq	%rax, %rdx
	leaq	.LC6(%rip), %rsi
	leaq	.LC48(%rip), %rdi
	call	fmargs_
	movl	-20(%rbp), %eax
	testl	%eax, %eax
	je	.L509
	leaq	-20(%rbp), %rcx
	movq	-48(%rbp), %rdx
	movq	-40(%rbp), %rsi
	movq	-40(%rbp), %rax
	movq	%rax, %rdi
	call	fmrslt_
	movl	24+fmuser_(%rip), %eax
	testl	%eax, %eax
	je	.L510
	movq	-48(%rbp), %rdx
	movq	-48(%rbp), %rax
	leaq	.LC6(%rip), %rcx
	movq	%rax, %rsi
	leaq	.LC6(%rip), %rdi
	call	fmntr_
.L510:
	movl	2616+fm_(%rip), %eax
	subl	$1, %eax
	movl	%eax, 2616+fm_(%rip)
	jmp	.L507
.L509:
	movl	fmuser_(%rip), %eax
	addl	$1, %eax
	movl	%eax, -8(%rbp)
	movq	-40(%rbp), %rax
	movl	(%rax), %eax
	testl	%eax, %eax
	jg	.L512
	movl	-8(%rbp), %edx
	movl	$1, -4(%rbp)
.L514:
	cmpl	%edx, -4(%rbp)
	setg	%al
	movzbl	%al, %eax
	testl	%eax, %eax
	jne	.L524
	movl	-4(%rbp), %eax
	cltq
	leaq	-1(%rax), %rcx
	movq	-48(%rbp), %rax
	movl	$0, (%rax,%rcx,4)
	addl	$1, -4(%rbp)
	jmp	.L514
.L524:
	nop
	jmp	.L515
.L512:
	movq	-40(%rbp), %rax
	movl	(%rax), %edx
	movl	fmuser_(%rip), %eax
	cmpl	%eax, %edx
	jl	.L516
	movl	-8(%rbp), %ecx
	movl	$1, -4(%rbp)
.L518:
	cmpl	%ecx, -4(%rbp)
	setg	%al
	movzbl	%al, %eax
	testl	%eax, %eax
	jne	.L525
	movl	-4(%rbp), %eax
	cltq
	leaq	-1(%rax), %rdx
	movl	-4(%rbp), %eax
	cltq
	leaq	-1(%rax), %rsi
	movq	-40(%rbp), %rax
	movl	(%rax,%rdx,4), %edx
	movq	-48(%rbp), %rax
	movl	%edx, (%rax,%rsi,4)
	addl	$1, -4(%rbp)
	jmp	.L518
.L525:
	nop
	jmp	.L515
.L516:
	movq	-40(%rbp), %rax
	movl	(%rax), %eax
	addl	$2, %eax
	movl	%eax, -12(%rbp)
	movl	-12(%rbp), %eax
	subl	$1, %eax
	movl	%eax, -16(%rbp)
	movl	-16(%rbp), %ecx
	movl	$1, -4(%rbp)
.L520:
	cmpl	%ecx, -4(%rbp)
	setg	%al
	movzbl	%al, %eax
	testl	%eax, %eax
	jne	.L526
	movl	-4(%rbp), %eax
	cltq
	leaq	-1(%rax), %rdx
	movl	-4(%rbp), %eax
	cltq
	leaq	-1(%rax), %rsi
	movq	-40(%rbp), %rax
	movl	(%rax,%rdx,4), %edx
	movq	-48(%rbp), %rax
	movl	%edx, (%rax,%rsi,4)
	addl	$1, -4(%rbp)
	jmp	.L520
.L526:
	nop
	movl	-12(%rbp), %eax
	movl	-8(%rbp), %edx
	movl	%eax, -4(%rbp)
.L521:
	cmpl	%edx, -4(%rbp)
	setg	%al
	movzbl	%al, %eax
	testl	%eax, %eax
	jne	.L527
	movl	-4(%rbp), %eax
	cltq
	leaq	-1(%rax), %rcx
	movq	-48(%rbp), %rax
	movl	$0, (%rax,%rcx,4)
	addl	$1, -4(%rbp)
	jmp	.L521
.L527:
	nop
.L515:
	movl	24+fmuser_(%rip), %eax
	testl	%eax, %eax
	je	.L522
	movq	-48(%rbp), %rdx
	movq	-48(%rbp), %rax
	leaq	.LC6(%rip), %rcx
	movq	%rax, %rsi
	leaq	.LC6(%rip), %rdi
	call	fmntr_
.L522:
	movl	2616+fm_(%rip), %eax
	subl	$1, %eax
	movl	%eax, 2616+fm_(%rip)
	nop
.L507:
	leave
	.cfi_def_cfa 7, 8
	ret
	.cfi_endproc
.LFE36:
	.size	fmint_, .-fmint_
	.section	.rodata
.LC49:
	.ascii	"(' INPUT TO FMINP'/(14X,65A1))"
	.text
	.globl	fminp_
	.type	fminp_, @function
fminp_:
.LFB37:
	.cfi_startproc
	pushq	%rbp
	.cfi_def_cfa_offset 16
	.cfi_offset 6, -16
	movq	%rsp, %rbp
	.cfi_def_cfa_register 6
	pushq	%rbx
	subq	$728, %rsp
	.cfi_offset 3, -24
	movq	%rdi, -696(%rbp)
	movq	%rsi, -704(%rbp)
	movq	%rdx, -712(%rbp)
	movq	%rcx, -720(%rbp)
	movq	%r8, -728(%rbp)
	movq	-720(%rbp), %rax
	movl	(%rax), %eax
	cltq
	movq	%rax, -80(%rbp)
	movq	-80(%rbp), %rax
	movl	$0, %edx
	testq	%rax, %rax
	cmovs	%rdx, %rax
	movq	%rax, %r10
	movl	$0, %r11d
	movl	2616+fm_(%rip), %eax
	addl	$1, %eax
	movl	%eax, 2616+fm_(%rip)
	movl	2616+fm_(%rip), %eax
	cltq
	subq	$1, %rax
	addq	$665, %rax
	leaq	0(,%rax,4), %rdx
	leaq	fm_(%rip), %rax
	movl	$17, (%rdx,%rax)
	movl	24+fmuser_(%rip), %eax
	cltd
	xorl	%edx, %eax
	subl	%edx, %eax
	cmpl	$1, %eax
	setg	%al
	movzbl	%al, %edx
	movl	2616+fm_(%rip), %ecx
	movl	28+fmuser_(%rip), %eax
	cmpl	%eax, %ecx
	setle	%al
	movzbl	%al, %eax
	andl	%edx, %eax
	testl	%eax, %eax
	je	.L529
	leaq	.LC1(%rip), %rax
	movq	%rax, -680(%rbp)
	movl	$4028, -672(%rbp)
	leaq	.LC49(%rip), %rax
	movq	%rax, -608(%rbp)
	movq	$30, -600(%rbp)
	movl	$4096, -688(%rbp)
	movl	20+fmuser_(%rip), %eax
	movl	%eax, -684(%rbp)
	leaq	-688(%rbp), %rax
	movq	%rax, %rdi
	call	_gfortran_st_write@PLT
	movq	-712(%rbp), %rax
	movl	(%rax), %eax
	movq	-720(%rbp), %rdx
	movl	(%rdx), %ebx
	movl	%eax, -64(%rbp)
.L531:
	movl	-688(%rbp), %eax
	andl	$3, %eax
	andl	$1, %eax
	testb	%al, %al
	jne	.L609
	cmpl	%ebx, -64(%rbp)
	setg	%al
	movzbl	%al, %eax
	testl	%eax, %eax
	jne	.L609
	movl	-64(%rbp), %eax
	cltq
	leaq	-1(%rax), %rdx
	movq	-696(%rbp), %rax
	leaq	(%rdx,%rax), %rcx
	leaq	-688(%rbp), %rax
	movl	$1, %edx
	movq	%rcx, %rsi
	movq	%rax, %rdi
	call	_gfortran_transfer_character_write@PLT
	addl	$1, -64(%rbp)
	jmp	.L531
.L609:
	nop
	leaq	-688(%rbp), %rax
	movq	%rax, %rdi
	call	_gfortran_st_write_done@PLT
.L529:
	movl	fmuser_(%rip), %eax
	movl	%eax, -160(%rbp)
	movl	2628+fm_(%rip), %eax
	movl	%eax, -84(%rbp)
	movl	$1, 2628+fm_(%rip)
	movl	40+fmuser_(%rip), %eax
	movl	%eax, -88(%rbp)
	movl	$1, 40+fmuser_(%rip)
	movl	$0, 32+fmuser_(%rip)
	movl	24+fmuser_(%rip), %eax
	movl	%eax, -92(%rbp)
	movl	$0, 24+fmuser_(%rip)
	movl	$1, -40(%rbp)
	movl	$1, -44(%rbp)
	movl	$1, -56(%rbp)
	movl	$1, -60(%rbp)
	movq	-712(%rbp), %rax
	movl	(%rax), %edx
	movq	-720(%rbp), %rax
	movl	(%rax), %eax
	movl	%edx, -20(%rbp)
.L538:
	cmpl	%eax, -20(%rbp)
	setg	%dl
	movzbl	%dl, %edx
	testl	%edx, %edx
	jne	.L610
	movl	-20(%rbp), %edx
	movslq	%edx, %rdx
	leaq	-1(%rdx), %rcx
	movq	-696(%rbp), %rdx
	movzbl	(%rdx,%rcx), %ecx
	movzbl	kminus.8093(%rip), %edx
	cmpb	%dl, %cl
	jne	.L533
	movl	$-1, -40(%rbp)
.L533:
	movl	-20(%rbp), %edx
	movslq	%edx, %rdx
	leaq	-1(%rdx), %rcx
	movq	-696(%rbp), %rdx
	movzbl	(%rdx,%rcx), %ecx
	movl	-44(%rbp), %edx
	movslq	%edx, %rdx
	leaq	-1(%rdx), %rsi
	leaq	kovfl.8097(%rip), %rdx
	movzbl	(%rsi,%rdx), %edx
	cmpb	%dl, %cl
	jne	.L534
	addl	$1, -44(%rbp)
	cmpl	$5, -44(%rbp)
	jne	.L534
	movq	-704(%rbp), %rax
	movq	%rax, %rsi
	leaq	.LC5(%rip), %rdi
	call	fmim_
	movl	2636+fm_(%rip), %edx
	movq	-704(%rbp), %rax
	movl	%edx, (%rax)
	movq	-704(%rbp), %rax
	movl	-40(%rbp), %edx
	movl	%edx, 4(%rax)
	jmp	.L535
.L534:
	movl	-20(%rbp), %edx
	movslq	%edx, %rdx
	leaq	-1(%rdx), %rcx
	movq	-696(%rbp), %rdx
	movzbl	(%rdx,%rcx), %ecx
	movl	-56(%rbp), %edx
	movslq	%edx, %rdx
	leaq	-1(%rdx), %rsi
	leaq	kunfl.8111(%rip), %rdx
	movzbl	(%rsi,%rdx), %edx
	cmpb	%dl, %cl
	jne	.L536
	addl	$1, -56(%rbp)
	cmpl	$5, -56(%rbp)
	jne	.L536
	movq	-704(%rbp), %rax
	movq	%rax, %rsi
	leaq	.LC5(%rip), %rdi
	call	fmim_
	movl	2632+fm_(%rip), %edx
	movq	-704(%rbp), %rax
	movl	%edx, (%rax)
	movq	-704(%rbp), %rax
	movl	-40(%rbp), %edx
	movl	%edx, 4(%rax)
	jmp	.L535
.L536:
	movl	-20(%rbp), %edx
	movslq	%edx, %rdx
	leaq	-1(%rdx), %rcx
	movq	-696(%rbp), %rdx
	movzbl	(%rdx,%rcx), %ecx
	movl	-60(%rbp), %edx
	movslq	%edx, %rdx
	leaq	-1(%rdx), %rsi
	leaq	kunkn.8113(%rip), %rdx
	movzbl	(%rsi,%rdx), %edx
	cmpb	%dl, %cl
	jne	.L537
	addl	$1, -60(%rbp)
	cmpl	$5, -60(%rbp)
	jne	.L537
	movq	-704(%rbp), %rax
	movq	%rax, %rsi
	leaq	.LC5(%rip), %rdi
	call	fmim_
	movl	2640+fm_(%rip), %edx
	movq	-704(%rbp), %rax
	movl	%edx, (%rax)
	movq	-704(%rbp), %rax
	movl	$1, 4(%rax)
	jmp	.L535
.L537:
	addl	$1, -20(%rbp)
	jmp	.L538
.L610:
	nop
	movl	2616+fm_(%rip), %eax
	cmpl	$1, %eax
	jne	.L539
	movl	4+fmuser_(%rip), %eax
	cvtsi2ssl	%eax, %xmm0
	movss	%xmm0, -96(%rbp)
	movl	-96(%rbp), %eax
	movd	%eax, %xmm0
	call	logf@PLT
	movss	.LC28(%rip), %xmm1
	divss	%xmm0, %xmm1
	movss	.LC29(%rip), %xmm0
	addss	%xmm1, %xmm0
	cvttss2sil	%xmm0, %eax
	movl	%eax, -28(%rbp)
	movl	fmuser_(%rip), %edx
	movl	-28(%rbp), %eax
	addl	%edx, %eax
	movl	$2, %edx
	cmpl	$2, %eax
	cmovl	%edx, %eax
	movl	%eax, fmuser_(%rip)
	movl	fmuser_(%rip), %edx
	movl	2656+fm_(%rip), %eax
	cmpl	%eax, %edx
	jle	.L539
	movl	$-9, 32+fmuser_(%rip)
	call	fmwarn_
	movl	2640+fm_(%rip), %edx
	movq	-704(%rbp), %rax
	movl	%edx, (%rax)
	movq	-704(%rbp), %rax
	movl	$1, 4(%rax)
	movl	-160(%rbp), %edx
	movl	$2, -20(%rbp)
.L541:
	cmpl	%edx, -20(%rbp)
	setg	%al
	movzbl	%al, %eax
	testl	%eax, %eax
	jne	.L611
	movl	-20(%rbp), %eax
	addl	$1, %eax
	cltq
	leaq	-1(%rax), %rcx
	movq	-704(%rbp), %rax
	movl	$0, (%rax,%rcx,4)
	addl	$1, -20(%rbp)
	jmp	.L541
.L611:
	nop
	jmp	.L535
.L539:
	movl	fmuser_(%rip), %eax
	movl	%eax, -100(%rbp)
	movq	-712(%rbp), %rax
	movl	(%rax), %eax
	movl	%eax, -132(%rbp)
	movq	-720(%rbp), %rax
	movl	(%rax), %eax
	movl	%eax, -136(%rbp)
	movl	$1, -24(%rbp)
	movl	$1, -48(%rbp)
	movl	fmuser_(%rip), %eax
	addl	$1, %eax
	movl	%eax, -104(%rbp)
	movl	-104(%rbp), %eax
	movl	$1, -20(%rbp)
.L543:
	cmpl	%eax, -20(%rbp)
	setg	%dl
	movzbl	%dl, %edx
	testl	%edx, %edx
	jne	.L612
	movl	-20(%rbp), %edx
	movslq	%edx, %rdx
	subq	$1, %rdx
	addq	$327, %rdx
	leaq	0(,%rdx,4), %rcx
	leaq	fm1_(%rip), %rdx
	movl	$0, (%rcx,%rdx)
	movl	-20(%rbp), %edx
	movslq	%edx, %rdx
	subq	$1, %rdx
	addq	$654, %rdx
	leaq	0(,%rdx,4), %rcx
	leaq	fm1_(%rip), %rdx
	movl	$0, (%rcx,%rdx)
	movl	-20(%rbp), %edx
	movslq	%edx, %rdx
	subq	$1, %rdx
	addq	$981, %rdx
	leaq	0(,%rdx,4), %rcx
	leaq	fm1_(%rip), %rdx
	movl	$0, (%rcx,%rdx)
	movl	-20(%rbp), %edx
	movslq	%edx, %rdx
	subq	$1, %rdx
	addq	$1308, %rdx
	leaq	0(,%rdx,4), %rcx
	leaq	fm1_(%rip), %rdx
	movl	$0, (%rcx,%rdx)
	addl	$1, -20(%rbp)
	jmp	.L543
.L612:
	nop
	movl	4+fmuser_(%rip), %eax
	cvtsi2ssl	%eax, %xmm0
	call	log10f@PLT
	movss	.LC8(%rip), %xmm1
	addss	%xmm1, %xmm0
	cvttss2sil	%xmm0, %eax
	movl	%eax, -128(%rbp)
	movl	-128(%rbp), %eax
	movl	%eax, %esi
	movl	$10, %edi
	call	_gfortran_pow_i4_i4@PLT
	movl	4+fmuser_(%rip), %edx
	cmpl	%edx, %eax
	jne	.L544
	leaq	-136(%rbp), %rcx
	leaq	-132(%rbp), %rdx
	movq	-696(%rbp), %rsi
	movq	-704(%rbp), %rax
	subq	$8, %rsp
	pushq	$1
	pushq	$1
	leaq	-128(%rbp), %rdi
	pushq	%rdi
	leaq	kblank.8088(%rip), %r9
	leaq	jtrans.8084(%rip), %r8
	movq	%rax, %rdi
	call	fminp2_
	addq	$32, %rsp
	jmp	.L545
.L544:
	movl	$0, -68(%rbp)
	movl	$1, -52(%rbp)
	movl	$0, -120(%rbp)
	movl	$0, -124(%rbp)
	movl	$0, -116(%rbp)
	movl	$1, -144(%rbp)
	movl	$1, -148(%rbp)
	movl	$1, -140(%rbp)
	movl	$0, -32(%rbp)
	movl	2652+fm_(%rip), %edx
	movl	2652+fm_(%rip), %eax
	imull	%edx, %eax
	subl	$10, %eax
	movslq	%eax, %rdx
	imulq	$1717986919, %rdx, %rdx
	shrq	$32, %rdx
	sarl	$2, %edx
	sarl	$31, %eax
	subl	%eax, %edx
	movl	%edx, %eax
	movl	%eax, -108(%rbp)
	movl	$0, -36(%rbp)
	movl	-132(%rbp), %eax
	movl	-136(%rbp), %ebx
	movl	%eax, -20(%rbp)
.L579:
	cmpl	%ebx, -20(%rbp)
	setg	%al
	movzbl	%al, %eax
	testl	%eax, %eax
	jne	.L613
	movl	-20(%rbp), %eax
	cltq
	leaq	-1(%rax), %rdx
	movq	-696(%rbp), %rax
	movzbl	(%rax,%rdx), %edx
	movzbl	kblank.8088(%rip), %eax
	cmpb	%al, %dl
	je	.L547
	movl	-20(%rbp), %eax
	cltq
	leaq	-1(%rax), %rdx
	movq	-696(%rbp), %rax
	leaq	(%rdx,%rax), %rdi
	leaq	-156(%rbp), %rdx
	leaq	-152(%rbp), %rax
	movl	$1, %ecx
	movq	%rax, %rsi
	call	fminpt_
	movl	-152(%rbp), %eax
	cmpl	$4, %eax
	jg	.L614
	movl	-152(%rbp), %eax
	cltq
	leaq	0(,%rax,8), %rdx
	movl	-24(%rbp), %eax
	cltq
	addq	%rdx, %rax
	subq	$9, %rax
	leaq	0(,%rax,4), %rdx
	leaq	jtrans.8084(%rip), %rax
	movl	(%rdx,%rax), %eax
	movl	%eax, -24(%rbp)
	cmpl	$9, -24(%rbp)
	ja	.L549
	movl	-24(%rbp), %eax
	leaq	0(,%rax,4), %rdx
	leaq	.L551(%rip), %rax
	movl	(%rdx,%rax), %eax
	cltq
	leaq	.L551(%rip), %rdx
	addq	%rdx, %rax
	jmp	*%rax
	.section	.rodata
	.align 4
	.align 4
.L551:
	.long	.L549-.L551
	.long	.L615-.L551
	.long	.L549-.L551
	.long	.L557-.L551
	.long	.L616-.L551
	.long	.L555-.L551
	.long	.L554-.L551
	.long	.L553-.L551
	.long	.L552-.L551
	.long	.L615-.L551
	.text
.L559:
.L558:
.L557:
	movl	$1, -36(%rbp)
	movl	-120(%rbp), %edx
	movl	%edx, %eax
	sall	$2, %eax
	addl	%edx, %eax
	addl	%eax, %eax
	movl	%eax, %edx
	movl	-156(%rbp), %eax
	addl	%edx, %eax
	movl	%eax, -120(%rbp)
	movl	-144(%rbp), %edx
	movl	%edx, %eax
	sall	$2, %eax
	addl	%edx, %eax
	addl	%eax, %eax
	movl	%eax, -144(%rbp)
	movl	-144(%rbp), %eax
	cmpl	%eax, -108(%rbp)
	jl	.L560
	jmp	.L547
.L556:
.L555:
	movl	$1, -36(%rbp)
	addl	$1, -68(%rbp)
	movl	-124(%rbp), %edx
	movl	%edx, %eax
	sall	$2, %eax
	addl	%edx, %eax
	addl	%eax, %eax
	movl	%eax, %edx
	movl	-156(%rbp), %eax
	addl	%edx, %eax
	movl	%eax, -124(%rbp)
	movl	-148(%rbp), %edx
	movl	%edx, %eax
	sall	$2, %eax
	addl	%edx, %eax
	addl	%eax, %eax
	movl	%eax, -148(%rbp)
	movl	-148(%rbp), %eax
	cmpl	%eax, -108(%rbp)
	jl	.L562
	jmp	.L547
.L554:
	cmpl	$0, -36(%rbp)
	je	.L564
	jmp	.L547
.L553:
	movl	-156(%rbp), %eax
	movl	%eax, -52(%rbp)
	jmp	.L547
.L552:
	movl	-116(%rbp), %edx
	movl	%edx, %eax
	sall	$2, %eax
	addl	%edx, %eax
	addl	%eax, %eax
	movl	%eax, %edx
	movl	-156(%rbp), %eax
	addl	%edx, %eax
	movl	%eax, -116(%rbp)
	movl	-140(%rbp), %edx
	movl	%edx, %eax
	sall	$2, %eax
	addl	%edx, %eax
	addl	%eax, %eax
	movl	%eax, -140(%rbp)
	movl	-140(%rbp), %eax
	cmpl	%eax, -108(%rbp)
	jl	.L566
	jmp	.L547
.L550:
.L549:
	movl	-156(%rbp), %eax
	movl	%eax, -48(%rbp)
	jmp	.L547
.L560:
	movl	-144(%rbp), %eax
	cmpl	%eax, -32(%rbp)
	setne	%al
	movzbl	%al, %edx
	movl	2620+fm1_(%rip), %eax
	testl	%eax, %eax
	setne	%al
	movzbl	%al, %eax
	andl	%edx, %eax
	testl	%eax, %eax
	je	.L567
	movq	-704(%rbp), %rdx
	leaq	-144(%rbp), %rax
	movq	%rdx, %rsi
	movq	%rax, %rdi
	call	fmi2m_
	movl	-144(%rbp), %eax
	movl	%eax, -32(%rbp)
.L567:
	movl	2620+fm1_(%rip), %eax
	testl	%eax, %eax
	jne	.L568
	leaq	-120(%rbp), %rax
	leaq	2616+fm1_(%rip), %rsi
	movq	%rax, %rdi
	call	fmi2m_
	jmp	.L569
.L568:
	movl	2616+fm1_(%rip), %edx
	movq	-704(%rbp), %rax
	movl	(%rax), %eax
	addl	%edx, %eax
	cmpl	%eax, -100(%rbp)
	cmovle	-100(%rbp), %eax
	movl	$2, %edx
	cmpl	%edx, %eax
	cmovl	%edx, %eax
	movl	%eax, fmuser_(%rip)
	movq	-704(%rbp), %rax
	leaq	2616+fm1_(%rip), %rdx
	movq	%rax, %rsi
	leaq	2616+fm1_(%rip), %rdi
	call	fmmpy_
	movl	-100(%rbp), %eax
	movl	%eax, fmuser_(%rip)
	leaq	-120(%rbp), %rax
	leaq	1308+fm1_(%rip), %rsi
	movq	%rax, %rdi
	call	fmi2m_
	movl	2616+fm1_(%rip), %eax
	movl	1308+fm1_(%rip), %edx
	cmpl	%eax, %edx
	cmovge	%edx, %eax
	addl	$1, %eax
	cmpl	%eax, -100(%rbp)
	cmovle	-100(%rbp), %eax
	movl	$2, %edx
	cmpl	%edx, %eax
	cmovl	%edx, %eax
	movl	%eax, fmuser_(%rip)
	movl	-120(%rbp), %eax
	testl	%eax, %eax
	je	.L570
	leaq	2616+fm1_(%rip), %rdx
	leaq	1308+fm1_(%rip), %rsi
	leaq	2616+fm1_(%rip), %rdi
	call	fmadd_
.L570:
	movl	-100(%rbp), %eax
	movl	%eax, fmuser_(%rip)
.L569:
	movl	$0, -120(%rbp)
	movl	$1, -144(%rbp)
	jmp	.L547
.L562:
	movl	-148(%rbp), %eax
	cmpl	%eax, -32(%rbp)
	setne	%al
	movzbl	%al, %edx
	movl	3928+fm1_(%rip), %eax
	testl	%eax, %eax
	setne	%al
	movzbl	%al, %eax
	andl	%edx, %eax
	testl	%eax, %eax
	je	.L571
	movq	-704(%rbp), %rdx
	leaq	-148(%rbp), %rax
	movq	%rdx, %rsi
	movq	%rax, %rdi
	call	fmi2m_
	movl	-148(%rbp), %eax
	movl	%eax, -32(%rbp)
.L571:
	movl	3928+fm1_(%rip), %eax
	testl	%eax, %eax
	jne	.L572
	leaq	-124(%rbp), %rax
	leaq	3924+fm1_(%rip), %rsi
	movq	%rax, %rdi
	call	fmi2m_
	jmp	.L573
.L572:
	movl	3924+fm1_(%rip), %edx
	movq	-704(%rbp), %rax
	movl	(%rax), %eax
	addl	%edx, %eax
	cmpl	%eax, -100(%rbp)
	cmovle	-100(%rbp), %eax
	movl	$2, %edx
	cmpl	%edx, %eax
	cmovl	%edx, %eax
	movl	%eax, fmuser_(%rip)
	movq	-704(%rbp), %rax
	leaq	3924+fm1_(%rip), %rdx
	movq	%rax, %rsi
	leaq	3924+fm1_(%rip), %rdi
	call	fmmpy_
	movl	-100(%rbp), %eax
	movl	%eax, fmuser_(%rip)
	leaq	-124(%rbp), %rax
	leaq	1308+fm1_(%rip), %rsi
	movq	%rax, %rdi
	call	fmi2m_
	movl	3924+fm1_(%rip), %eax
	movl	1308+fm1_(%rip), %edx
	cmpl	%eax, %edx
	cmovge	%edx, %eax
	addl	$1, %eax
	cmpl	%eax, -100(%rbp)
	cmovle	-100(%rbp), %eax
	movl	$2, %edx
	cmpl	%edx, %eax
	cmovl	%edx, %eax
	movl	%eax, fmuser_(%rip)
	movl	-124(%rbp), %eax
	testl	%eax, %eax
	je	.L574
	leaq	3924+fm1_(%rip), %rdx
	leaq	1308+fm1_(%rip), %rsi
	leaq	3924+fm1_(%rip), %rdi
	call	fmadd_
.L574:
	movl	-100(%rbp), %eax
	movl	%eax, fmuser_(%rip)
.L573:
	movl	$0, -124(%rbp)
	movl	$1, -148(%rbp)
	jmp	.L547
.L564:
	leaq	2616+fm1_(%rip), %rsi
	leaq	.LC6(%rip), %rdi
	call	fmi2m_
	jmp	.L547
.L566:
	movl	-140(%rbp), %eax
	cmpl	%eax, -32(%rbp)
	setne	%al
	movzbl	%al, %edx
	movl	5236+fm1_(%rip), %eax
	testl	%eax, %eax
	setne	%al
	movzbl	%al, %eax
	andl	%edx, %eax
	testl	%eax, %eax
	je	.L575
	movq	-704(%rbp), %rdx
	leaq	-140(%rbp), %rax
	movq	%rdx, %rsi
	movq	%rax, %rdi
	call	fmi2m_
	movl	-140(%rbp), %eax
	movl	%eax, -32(%rbp)
.L575:
	movl	5236+fm1_(%rip), %eax
	testl	%eax, %eax
	jne	.L576
	leaq	-116(%rbp), %rax
	leaq	5232+fm1_(%rip), %rsi
	movq	%rax, %rdi
	call	fmi2m_
	jmp	.L577
.L576:
	movl	5232+fm1_(%rip), %edx
	movq	-704(%rbp), %rax
	movl	(%rax), %eax
	addl	%edx, %eax
	cmpl	%eax, -100(%rbp)
	cmovle	-100(%rbp), %eax
	movl	$2, %edx
	cmpl	%edx, %eax
	cmovl	%edx, %eax
	movl	%eax, fmuser_(%rip)
	movq	-704(%rbp), %rax
	leaq	5232+fm1_(%rip), %rdx
	movq	%rax, %rsi
	leaq	5232+fm1_(%rip), %rdi
	call	fmmpy_
	movl	-100(%rbp), %eax
	movl	%eax, fmuser_(%rip)
	leaq	-116(%rbp), %rax
	leaq	1308+fm1_(%rip), %rsi
	movq	%rax, %rdi
	call	fmi2m_
	movl	5232+fm1_(%rip), %eax
	movl	1308+fm1_(%rip), %edx
	cmpl	%eax, %edx
	cmovge	%edx, %eax
	addl	$1, %eax
	cmpl	%eax, -100(%rbp)
	cmovle	-100(%rbp), %eax
	movl	$2, %edx
	cmpl	%edx, %eax
	cmovl	%edx, %eax
	movl	%eax, fmuser_(%rip)
	movl	-116(%rbp), %eax
	testl	%eax, %eax
	je	.L578
	leaq	5232+fm1_(%rip), %rdx
	leaq	1308+fm1_(%rip), %rsi
	leaq	5232+fm1_(%rip), %rdi
	call	fmadd_
.L578:
	movl	-100(%rbp), %eax
	movl	%eax, fmuser_(%rip)
.L577:
	movl	$0, -116(%rbp)
	movl	$1, -140(%rbp)
	jmp	.L547
.L616:
	nop
.L547:
	addl	$1, -20(%rbp)
	jmp	.L579
.L613:
	nop
	movl	-144(%rbp), %eax
	cmpl	$1, %eax
	jle	.L580
	movl	-144(%rbp), %eax
	cmpl	%eax, -32(%rbp)
	setne	%al
	movzbl	%al, %edx
	movl	2620+fm1_(%rip), %eax
	testl	%eax, %eax
	setne	%al
	movzbl	%al, %eax
	andl	%edx, %eax
	testl	%eax, %eax
	je	.L581
	movq	-704(%rbp), %rdx
	leaq	-144(%rbp), %rax
	movq	%rdx, %rsi
	movq	%rax, %rdi
	call	fmi2m_
	movl	-144(%rbp), %eax
	movl	%eax, -32(%rbp)
.L581:
	movl	2620+fm1_(%rip), %eax
	testl	%eax, %eax
	jne	.L582
	leaq	-120(%rbp), %rax
	leaq	2616+fm1_(%rip), %rsi
	movq	%rax, %rdi
	call	fmi2m_
	jmp	.L580
.L582:
	movl	2616+fm1_(%rip), %edx
	movq	-704(%rbp), %rax
	movl	(%rax), %eax
	addl	%edx, %eax
	cmpl	%eax, -100(%rbp)
	cmovle	-100(%rbp), %eax
	movl	$2, %edx
	cmpl	%edx, %eax
	cmovl	%edx, %eax
	movl	%eax, fmuser_(%rip)
	movq	-704(%rbp), %rax
	leaq	2616+fm1_(%rip), %rdx
	movq	%rax, %rsi
	leaq	2616+fm1_(%rip), %rdi
	call	fmmpy_
	movl	-100(%rbp), %eax
	movl	%eax, fmuser_(%rip)
	leaq	-120(%rbp), %rax
	leaq	1308+fm1_(%rip), %rsi
	movq	%rax, %rdi
	call	fmi2m_
	movl	2616+fm1_(%rip), %eax
	movl	1308+fm1_(%rip), %edx
	cmpl	%eax, %edx
	cmovge	%edx, %eax
	addl	$1, %eax
	cmpl	%eax, -100(%rbp)
	cmovle	-100(%rbp), %eax
	movl	$2, %edx
	cmpl	%edx, %eax
	cmovl	%edx, %eax
	movl	%eax, fmuser_(%rip)
	movl	-120(%rbp), %eax
	testl	%eax, %eax
	je	.L583
	leaq	2616+fm1_(%rip), %rdx
	leaq	1308+fm1_(%rip), %rsi
	leaq	2616+fm1_(%rip), %rdi
	call	fmadd_
.L583:
	movl	-100(%rbp), %eax
	movl	%eax, fmuser_(%rip)
.L580:
	movl	-148(%rbp), %eax
	cmpl	$1, %eax
	jle	.L584
	movl	-148(%rbp), %eax
	cmpl	%eax, -32(%rbp)
	setne	%al
	movzbl	%al, %edx
	movl	3928+fm1_(%rip), %eax
	testl	%eax, %eax
	setne	%al
	movzbl	%al, %eax
	andl	%edx, %eax
	testl	%eax, %eax
	je	.L585
	movq	-704(%rbp), %rdx
	leaq	-148(%rbp), %rax
	movq	%rdx, %rsi
	movq	%rax, %rdi
	call	fmi2m_
	movl	-148(%rbp), %eax
	movl	%eax, -32(%rbp)
.L585:
	movl	3928+fm1_(%rip), %eax
	testl	%eax, %eax
	jne	.L586
	leaq	-124(%rbp), %rax
	leaq	3924+fm1_(%rip), %rsi
	movq	%rax, %rdi
	call	fmi2m_
	jmp	.L584
.L586:
	movl	3924+fm1_(%rip), %edx
	movq	-704(%rbp), %rax
	movl	(%rax), %eax
	addl	%edx, %eax
	cmpl	%eax, -100(%rbp)
	cmovle	-100(%rbp), %eax
	movl	$2, %edx
	cmpl	%edx, %eax
	cmovl	%edx, %eax
	movl	%eax, fmuser_(%rip)
	movq	-704(%rbp), %rax
	leaq	3924+fm1_(%rip), %rdx
	movq	%rax, %rsi
	leaq	3924+fm1_(%rip), %rdi
	call	fmmpy_
	movl	-100(%rbp), %eax
	movl	%eax, fmuser_(%rip)
	leaq	-124(%rbp), %rax
	leaq	1308+fm1_(%rip), %rsi
	movq	%rax, %rdi
	call	fmi2m_
	movl	3924+fm1_(%rip), %eax
	movl	1308+fm1_(%rip), %edx
	cmpl	%eax, %edx
	cmovge	%edx, %eax
	addl	$1, %eax
	cmpl	%eax, -100(%rbp)
	cmovle	-100(%rbp), %eax
	movl	$2, %edx
	cmpl	%edx, %eax
	cmovl	%edx, %eax
	movl	%eax, fmuser_(%rip)
	movl	-124(%rbp), %eax
	testl	%eax, %eax
	je	.L587
	leaq	3924+fm1_(%rip), %rdx
	leaq	1308+fm1_(%rip), %rsi
	leaq	3924+fm1_(%rip), %rdi
	call	fmadd_
.L587:
	movl	-100(%rbp), %eax
	movl	%eax, fmuser_(%rip)
.L584:
	movl	-140(%rbp), %eax
	cmpl	$1, %eax
	jle	.L588
	movl	-140(%rbp), %eax
	cmpl	%eax, -32(%rbp)
	setne	%al
	movzbl	%al, %edx
	movl	5236+fm1_(%rip), %eax
	testl	%eax, %eax
	setne	%al
	movzbl	%al, %eax
	andl	%edx, %eax
	testl	%eax, %eax
	je	.L589
	movq	-704(%rbp), %rdx
	leaq	-140(%rbp), %rax
	movq	%rdx, %rsi
	movq	%rax, %rdi
	call	fmi2m_
	movl	-140(%rbp), %eax
	movl	%eax, -32(%rbp)
.L589:
	movl	5236+fm1_(%rip), %eax
	testl	%eax, %eax
	jne	.L590
	leaq	-116(%rbp), %rax
	leaq	5232+fm1_(%rip), %rsi
	movq	%rax, %rdi
	call	fmi2m_
	jmp	.L588
.L590:
	movl	5232+fm1_(%rip), %edx
	movq	-704(%rbp), %rax
	movl	(%rax), %eax
	addl	%edx, %eax
	cmpl	%eax, -100(%rbp)
	cmovle	-100(%rbp), %eax
	movl	$2, %edx
	cmpl	%edx, %eax
	cmovl	%edx, %eax
	movl	%eax, fmuser_(%rip)
	movq	-704(%rbp), %rax
	leaq	5232+fm1_(%rip), %rdx
	movq	%rax, %rsi
	leaq	5232+fm1_(%rip), %rdi
	call	fmmpy_
	movl	-100(%rbp), %eax
	movl	%eax, fmuser_(%rip)
	leaq	-116(%rbp), %rax
	leaq	1308+fm1_(%rip), %rsi
	movq	%rax, %rdi
	call	fmi2m_
	movl	5232+fm1_(%rip), %eax
	movl	1308+fm1_(%rip), %edx
	cmpl	%eax, %edx
	cmovge	%edx, %eax
	addl	$1, %eax
	cmpl	%eax, -100(%rbp)
	cmovle	-100(%rbp), %eax
	movl	$2, %edx
	cmpl	%edx, %eax
	cmovl	%edx, %eax
	movl	%eax, fmuser_(%rip)
	movl	-116(%rbp), %eax
	testl	%eax, %eax
	je	.L591
	leaq	5232+fm1_(%rip), %rdx
	leaq	1308+fm1_(%rip), %rsi
	leaq	5232+fm1_(%rip), %rdi
	call	fmadd_
.L591:
	movl	-100(%rbp), %eax
	movl	%eax, fmuser_(%rip)
.L588:
	cmpl	$-1, -52(%rbp)
	jne	.L592
	movl	5236+fm1_(%rip), %eax
	negl	%eax
	movl	%eax, 5236+fm1_(%rip)
.L592:
	movl	3928+fm1_(%rip), %eax
	testl	%eax, %eax
	je	.L593
	leaq	1308+fm1_(%rip), %rsi
	leaq	.LC47(%rip), %rdi
	call	fmi2m_
	movl	-68(%rbp), %eax
	movl	%eax, -28(%rbp)
	movl	-28(%rbp), %eax
	andl	$1, %eax
	testl	%eax, %eax
	jne	.L594
	movq	-704(%rbp), %rax
	movq	%rax, %rsi
	leaq	.LC6(%rip), %rdi
	call	fmi2m_
	jmp	.L597
.L594:
	movq	-704(%rbp), %rax
	leaq	fmuser_(%rip), %rcx
	leaq	fmuser_(%rip), %rdx
	movq	%rax, %rsi
	leaq	1308+fm1_(%rip), %rdi
	call	fmequ_
.L597:
	movl	-28(%rbp), %eax
	movl	%eax, %edx
	shrl	$31, %edx
	addl	%edx, %eax
	sarl	%eax
	movl	%eax, -28(%rbp)
	movl	1308+fm1_(%rip), %eax
	addl	%eax, %eax
	cmpl	%eax, -100(%rbp)
	cmovle	-100(%rbp), %eax
	movl	$2, %edx
	cmpl	%edx, %eax
	cmovl	%edx, %eax
	movl	%eax, fmuser_(%rip)
	leaq	1308+fm1_(%rip), %rdx
	leaq	1308+fm1_(%rip), %rsi
	leaq	1308+fm1_(%rip), %rdi
	call	fmmpy_
	movl	-28(%rbp), %eax
	cltd
	shrl	$31, %edx
	addl	%edx, %eax
	andl	$1, %eax
	subl	%edx, %eax
	cmpl	$1, %eax
	jne	.L596
	movl	1308+fm1_(%rip), %edx
	movq	-704(%rbp), %rax
	movl	(%rax), %eax
	addl	%edx, %eax
	cmpl	%eax, -100(%rbp)
	cmovle	-100(%rbp), %eax
	movl	$2, %edx
	cmpl	%edx, %eax
	cmovl	%edx, %eax
	movl	%eax, fmuser_(%rip)
	movq	-704(%rbp), %rdx
	movq	-704(%rbp), %rax
	movq	%rax, %rsi
	leaq	1308+fm1_(%rip), %rdi
	call	fmmpy_
.L596:
	cmpl	$1, -28(%rbp)
	jg	.L597
	movl	-100(%rbp), %eax
	movl	%eax, fmuser_(%rip)
	movq	-704(%rbp), %rax
	leaq	3924+fm1_(%rip), %rdx
	movq	%rax, %rsi
	leaq	3924+fm1_(%rip), %rdi
	call	fmdiv_
.L593:
	movl	5236+fm1_(%rip), %eax
	testl	%eax, %eax
	je	.L598
	leaq	1308+fm1_(%rip), %rsi
	leaq	.LC47(%rip), %rdi
	call	fmi2m_
	movl	36+fmuser_(%rip), %eax
	movl	%eax, -112(%rbp)
	movl	$0, 36+fmuser_(%rip)
	leaq	-116(%rbp), %rax
	movq	%rax, %rsi
	leaq	5232+fm1_(%rip), %rdi
	call	fmm2i_
	movl	-112(%rbp), %eax
	movl	%eax, 36+fmuser_(%rip)
	movl	32+fmuser_(%rip), %eax
	testl	%eax, %eax
	jne	.L614
	movl	-116(%rbp), %edx
	movl	%edx, %eax
	sarl	$31, %eax
	xorl	%eax, %edx
	movl	%edx, -28(%rbp)
	subl	%eax, -28(%rbp)
	movl	-28(%rbp), %eax
	andl	$1, %eax
	testl	%eax, %eax
	jne	.L599
	leaq	5232+fm1_(%rip), %rsi
	leaq	.LC6(%rip), %rdi
	call	fmi2m_
	jmp	.L602
.L599:
	leaq	fmuser_(%rip), %rcx
	leaq	fmuser_(%rip), %rdx
	leaq	5232+fm1_(%rip), %rsi
	leaq	1308+fm1_(%rip), %rdi
	call	fmequ_
.L602:
	movl	-28(%rbp), %eax
	movl	%eax, %edx
	shrl	$31, %edx
	addl	%edx, %eax
	sarl	%eax
	movl	%eax, -28(%rbp)
	movl	1308+fm1_(%rip), %eax
	addl	%eax, %eax
	cmpl	%eax, -100(%rbp)
	cmovle	-100(%rbp), %eax
	movl	$2, %edx
	cmpl	%edx, %eax
	cmovl	%edx, %eax
	movl	%eax, fmuser_(%rip)
	leaq	1308+fm1_(%rip), %rdx
	leaq	1308+fm1_(%rip), %rsi
	leaq	1308+fm1_(%rip), %rdi
	call	fmmpy_
	movl	-28(%rbp), %eax
	cltd
	shrl	$31, %edx
	addl	%edx, %eax
	andl	$1, %eax
	subl	%edx, %eax
	cmpl	$1, %eax
	jne	.L601
	movl	1308+fm1_(%rip), %edx
	movl	5232+fm1_(%rip), %eax
	addl	%edx, %eax
	cmpl	%eax, -100(%rbp)
	cmovle	-100(%rbp), %eax
	movl	$2, %edx
	cmpl	%edx, %eax
	cmovl	%edx, %eax
	movl	%eax, fmuser_(%rip)
	leaq	5232+fm1_(%rip), %rdx
	leaq	5232+fm1_(%rip), %rsi
	leaq	1308+fm1_(%rip), %rdi
	call	fmmpy_
.L601:
	cmpl	$1, -28(%rbp)
	jg	.L602
	movl	-100(%rbp), %eax
	movl	%eax, fmuser_(%rip)
	movl	-116(%rbp), %eax
	testl	%eax, %eax
	jns	.L598
	leaq	1308+fm1_(%rip), %rsi
	leaq	.LC6(%rip), %rdi
	call	fmi2m_
	leaq	5232+fm1_(%rip), %rdx
	leaq	5232+fm1_(%rip), %rsi
	leaq	1308+fm1_(%rip), %rdi
	call	fmdiv_
.L598:
	movq	-704(%rbp), %rax
	movq	%rax, %rdx
	leaq	3924+fm1_(%rip), %rsi
	leaq	2616+fm1_(%rip), %rdi
	call	fmadd_
	movl	5236+fm1_(%rip), %eax
	testl	%eax, %eax
	je	.L603
	movq	-704(%rbp), %rdx
	movq	-704(%rbp), %rax
	leaq	5232+fm1_(%rip), %rsi
	movq	%rax, %rdi
	call	fmmpy_
.L603:
	cmpl	$-1, -48(%rbp)
	jne	.L545
	movq	-704(%rbp), %rax
	movl	4(%rax), %eax
	negl	%eax
	movl	%eax, %edx
	movq	-704(%rbp), %rax
	movl	%edx, 4(%rax)
.L545:
	leaq	-160(%rbp), %rdx
	movq	-704(%rbp), %rsi
	movq	-704(%rbp), %rax
	movq	%rdx, %rcx
	leaq	fmuser_(%rip), %rdx
	movq	%rax, %rdi
	call	fmequ_
	movq	-704(%rbp), %rax
	movl	(%rax), %edx
	movl	2640+fm_(%rip), %eax
	cmpl	%eax, %edx
	je	.L614
.L535:
	movl	-160(%rbp), %eax
	movl	%eax, fmuser_(%rip)
	movl	-84(%rbp), %eax
	movl	%eax, 2628+fm_(%rip)
	movl	-92(%rbp), %eax
	movl	%eax, 24+fmuser_(%rip)
	movl	-88(%rbp), %eax
	movl	%eax, 40+fmuser_(%rip)
	movl	32+fmuser_(%rip), %eax
	cmpl	$1, %eax
	jne	.L604
	movl	$0, 32+fmuser_(%rip)
.L604:
	movl	24+fmuser_(%rip), %eax
	testl	%eax, %eax
	je	.L605
	movq	-704(%rbp), %rdx
	movq	-704(%rbp), %rax
	leaq	.LC6(%rip), %rcx
	movq	%rax, %rsi
	leaq	.LC6(%rip), %rdi
	call	fmntr_
.L605:
	movl	2616+fm_(%rip), %eax
	subl	$1, %eax
	movl	%eax, 2616+fm_(%rip)
	jmp	.L608
.L614:
	nop
	jmp	.L548
.L615:
	nop
.L548:
	movq	-704(%rbp), %rax
	movq	%rax, %rsi
	leaq	.LC5(%rip), %rdi
	call	fmim_
	movl	2640+fm_(%rip), %edx
	movq	-704(%rbp), %rax
	movl	%edx, (%rax)
	movq	-704(%rbp), %rax
	movl	$1, 4(%rax)
	movl	$-7, 32+fmuser_(%rip)
	call	fmwarn_
	jmp	.L535
.L608:
	movq	-8(%rbp), %rbx
	leave
	.cfi_def_cfa 7, 8
	ret
	.cfi_endproc
.LFE37:
	.size	fminp_, .-fminp_
	.section	.rodata
	.align 4
.LC50:
	.long	15
	.text
	.globl	fmexp_
	.type	fmexp_, @function
fmexp_:
.LFB38:
	.cfi_startproc
	pushq	%rbp
	.cfi_def_cfa_offset 16
	.cfi_offset 6, -16
	movq	%rsp, %rbp
	.cfi_def_cfa_register 6
	subq	$96, %rsp
	movq	%rdi, -72(%rbp)
	movq	%rsi, -80(%rbp)
	leaq	-52(%rbp), %rdi
	movq	-80(%rbp), %rsi
	movq	-72(%rbp), %rdx
	movq	-72(%rbp), %rax
	leaq	-48(%rbp), %rcx
	pushq	%rcx
	leaq	-44(%rbp), %rcx
	pushq	%rcx
	leaq	-60(%rbp), %rcx
	pushq	%rcx
	leaq	-64(%rbp), %rcx
	pushq	%rcx
	movq	%rdi, %r9
	movq	%rsi, %r8
	leaq	.LC6(%rip), %rcx
	movq	%rax, %rsi
	leaq	.LC50(%rip), %rdi
	call	fmentr_
	addq	$32, %rsp
	movl	-52(%rbp), %eax
	testl	%eax, %eax
	jne	.L617
	movq	-72(%rbp), %rax
	movl	(%rax), %eax
	movl	%eax, -12(%rbp)
	movq	-72(%rbp), %rax
	movl	4(%rax), %eax
	movl	%eax, -16(%rbp)
	leaq	-64(%rbp), %rdx
	movq	-80(%rbp), %rsi
	movq	-72(%rbp), %rax
	leaq	fmuser_(%rip), %rcx
	movq	%rax, %rdi
	call	fmequ_
	movl	2620+fm_(%rip), %eax
	cvtsi2ssl	%eax, %xmm1
	movss	.LC24(%rip), %xmm0
	mulss	%xmm1, %xmm0
	call	logf@PLT
	movss	%xmm0, -84(%rbp)
	movl	4+fmuser_(%rip), %eax
	cvtsi2ssl	%eax, %xmm0
	call	logf@PLT
	call	logf@PLT
	addss	-84(%rbp), %xmm0
	movss	%xmm0, -20(%rbp)
	movl	-16(%rbp), %eax
	cltd
	movl	%edx, %eax
	xorl	-16(%rbp), %eax
	subl	%edx, %eax
	movl	$1, %edx
	testl	%eax, %eax
	cmovle	%edx, %eax
	cvtsi2ssl	%eax, %xmm0
	call	logf@PLT
	movss	%xmm0, -84(%rbp)
	movl	4+fmuser_(%rip), %eax
	cvtsi2ssl	%eax, %xmm0
	call	logf@PLT
	movss	-84(%rbp), %xmm2
	subss	%xmm0, %xmm2
	movss	%xmm2, -84(%rbp)
	cvtsi2ssl	-12(%rbp), %xmm4
	movss	%xmm4, -88(%rbp)
	movl	4+fmuser_(%rip), %eax
	cvtsi2ssl	%eax, %xmm0
	call	logf@PLT
	mulss	-88(%rbp), %xmm0
	addss	-84(%rbp), %xmm0
	movss	%xmm0, -8(%rbp)
.L626:
	movss	-8(%rbp), %xmm0
	comiss	-20(%rbp), %xmm0
	jb	.L641
	movq	-80(%rbp), %rax
	movq	%rax, %rsi
	leaq	.LC5(%rip), %rdi
	call	fmim_
	cmpl	$0, -16(%rbp)
	jle	.L622
	movl	$-5, 32+fmuser_(%rip)
	movl	2636+fm_(%rip), %edx
	movq	-80(%rbp), %rax
	movl	%edx, (%rax)
	movq	-80(%rbp), %rax
	movl	$1, 4(%rax)
	jmp	.L623
.L622:
	movl	$-6, 32+fmuser_(%rip)
	movl	2632+fm_(%rip), %edx
	movq	-80(%rbp), %rax
	movl	%edx, (%rax)
	movq	-80(%rbp), %rax
	movl	$1, 4(%rax)
.L623:
	movl	-64(%rbp), %eax
	movl	%eax, fmuser_(%rip)
	movl	-60(%rbp), %eax
	movl	%eax, 2620+fm_(%rip)
	movl	-44(%rbp), %eax
	movl	%eax, 2628+fm_(%rip)
	call	fmwarn_
	movl	24+fmuser_(%rip), %eax
	testl	%eax, %eax
	je	.L624
	movq	-80(%rbp), %rdx
	movq	-80(%rbp), %rax
	leaq	.LC6(%rip), %rcx
	movq	%rax, %rsi
	leaq	.LC6(%rip), %rdi
	call	fmntr_
.L624:
	movl	2616+fm_(%rip), %eax
	subl	$1, %eax
	movl	%eax, 2616+fm_(%rip)
	jmp	.L617
.L641:
	movq	-80(%rbp), %rax
	movl	4(%rax), %eax
	cltd
	xorl	%edx, %eax
	subl	%edx, %eax
	movq	-80(%rbp), %rdx
	movl	%eax, 4(%rdx)
	movq	-80(%rbp), %rax
	leaq	1308+fm1_(%rip), %rsi
	movq	%rax, %rdi
	call	fmint_
	movq	-80(%rbp), %rdx
	movq	-80(%rbp), %rax
	leaq	1308+fm1_(%rip), %rsi
	movq	%rax, %rdi
	call	fmsub_
	movl	36+fmuser_(%rip), %eax
	movl	%eax, -24(%rbp)
	movl	$0, 36+fmuser_(%rip)
	leaq	-56(%rbp), %rax
	movq	%rax, %rsi
	leaq	1308+fm1_(%rip), %rdi
	call	fmm2i_
	movl	-24(%rbp), %eax
	movl	%eax, 36+fmuser_(%rip)
	movl	32+fmuser_(%rip), %eax
	testl	%eax, %eax
	je	.L625
	movss	-20(%rbp), %xmm0
	movss	%xmm0, -8(%rbp)
	jmp	.L626
.L625:
	movl	-56(%rbp), %eax
	testl	%eax, %eax
	jle	.L627
	movl	-56(%rbp), %eax
	cvtsi2ssl	%eax, %xmm0
	movss	%xmm0, -28(%rbp)
	movl	4+fmuser_(%rip), %eax
	cvtsi2ssl	%eax, %xmm0
	movss	%xmm0, -32(%rbp)
	movl	-28(%rbp), %eax
	movd	%eax, %xmm0
	call	logf@PLT
	movss	%xmm0, -84(%rbp)
	movl	-32(%rbp), %eax
	movd	%eax, %xmm0
	call	logf@PLT
	movss	-84(%rbp), %xmm1
	divss	%xmm0, %xmm1
	movss	.LC8(%rip), %xmm0
	addss	%xmm1, %xmm0
	cvttss2sil	%xmm0, %eax
	movl	%eax, -36(%rbp)
	cmpl	$0, -36(%rbp)
	setg	%al
	movzbl	%al, %edx
	movl	fmuser_(%rip), %ecx
	movl	-36(%rbp), %eax
	addl	%eax, %ecx
	movl	2656+fm_(%rip), %eax
	cmpl	%eax, %ecx
	setle	%al
	movzbl	%al, %eax
	andl	%edx, %eax
	testl	%eax, %eax
	je	.L628
	movl	-36(%rbp), %edx
	movl	$1, -4(%rbp)
.L630:
	cmpl	%edx, -4(%rbp)
	setg	%al
	movzbl	%al, %eax
	testl	%eax, %eax
	jne	.L642
	movl	fmuser_(%rip), %eax
	leal	1(%rax), %ecx
	movl	-4(%rbp), %eax
	addl	%ecx, %eax
	cltq
	leaq	-1(%rax), %rcx
	movq	-80(%rbp), %rax
	movl	$0, (%rax,%rcx,4)
	addl	$1, -4(%rbp)
	jmp	.L630
.L642:
	nop
.L628:
	movl	fmuser_(%rip), %edx
	movl	-36(%rbp), %eax
	addl	%edx, %eax
	movl	%eax, fmuser_(%rip)
	movl	fmuser_(%rip), %edx
	movl	2656+fm_(%rip), %eax
	cmpl	%eax, %edx
	jle	.L631
	movl	$-9, 32+fmuser_(%rip)
	call	fmwarn_
	movl	2640+fm_(%rip), %edx
	movq	-80(%rbp), %rax
	movl	%edx, (%rax)
	movq	-80(%rbp), %rax
	movl	$1, 4(%rax)
	movl	-64(%rbp), %edx
	movl	$2, -4(%rbp)
.L633:
	cmpl	%edx, -4(%rbp)
	setg	%al
	movzbl	%al, %eax
	testl	%eax, %eax
	jne	.L643
	movl	-4(%rbp), %eax
	addl	$1, %eax
	cltq
	leaq	-1(%rax), %rcx
	movq	-80(%rbp), %rax
	movl	$0, (%rax,%rcx,4)
	addl	$1, -4(%rbp)
	jmp	.L633
.L643:
	nop
	leaq	-48(%rbp), %r8
	leaq	-44(%rbp), %rdi
	leaq	-60(%rbp), %rcx
	leaq	-64(%rbp), %rdx
	movq	-80(%rbp), %rsi
	movq	-80(%rbp), %rax
	movq	%r8, %r9
	movq	%rdi, %r8
	movq	%rax, %rdi
	call	fmexit_
	jmp	.L617
.L631:
	movl	12+fmsave_(%rip), %edx
	movl	4+fmuser_(%rip), %eax
	cmpl	%eax, %edx
	setne	%al
	movzbl	%al, %edx
	movl	fmuser_(%rip), %ecx
	movl	8+fmsave_(%rip), %eax
	cmpl	%eax, %ecx
	setg	%al
	movzbl	%al, %eax
	orl	%edx, %eax
	testl	%eax, %eax
	je	.L627
	movl	fmuser_(%rip), %eax
	movl	%eax, -40(%rbp)
	movl	fmuser_(%rip), %eax
	leal	2(%rax), %edx
	movl	2656+fm_(%rip), %eax
	cmpl	%eax, %edx
	cmovle	%edx, %eax
	movl	%eax, fmuser_(%rip)
	leaq	1340+fmsave_(%rip), %rsi
	leaq	.LC6(%rip), %rdi
	call	fmi2m_
	leaq	1340+fmsave_(%rip), %rsi
	leaq	1340+fmsave_(%rip), %rdi
	call	fmexp2_
	movl	4+fmuser_(%rip), %eax
	movl	%eax, 12+fmsave_(%rip)
	movl	fmuser_(%rip), %eax
	movl	%eax, 8+fmsave_(%rip)
	movl	-40(%rbp), %eax
	movl	%eax, fmuser_(%rip)
.L627:
	movl	36+fmuser_(%rip), %eax
	movl	%eax, -24(%rbp)
	movl	$0, 36+fmuser_(%rip)
	movq	-80(%rbp), %rax
	movl	4(%rax), %eax
	testl	%eax, %eax
	setne	%al
	movzbl	%al, %edx
	movl	-56(%rbp), %eax
	testl	%eax, %eax
	setg	%al
	movzbl	%al, %eax
	andl	%edx, %eax
	testl	%eax, %eax
	je	.L634
	movq	-80(%rbp), %rdx
	movq	-80(%rbp), %rax
	movq	%rdx, %rsi
	movq	%rax, %rdi
	call	fmexp2_
	leaq	-56(%rbp), %rax
	leaq	2616+fm1_(%rip), %rdx
	movq	%rax, %rsi
	leaq	1340+fmsave_(%rip), %rdi
	call	fmipwr_
	movq	-80(%rbp), %rdx
	movq	-80(%rbp), %rax
	leaq	2616+fm1_(%rip), %rsi
	movq	%rax, %rdi
	call	fmmpy_
	jmp	.L635
.L634:
	movq	-80(%rbp), %rax
	movl	4(%rax), %eax
	testl	%eax, %eax
	setne	%al
	movzbl	%al, %edx
	movl	-56(%rbp), %eax
	testl	%eax, %eax
	sete	%al
	movzbl	%al, %eax
	andl	%edx, %eax
	testl	%eax, %eax
	je	.L636
	movq	-80(%rbp), %rdx
	movq	-80(%rbp), %rax
	movq	%rdx, %rsi
	movq	%rax, %rdi
	call	fmexp2_
	jmp	.L635
.L636:
	movq	-80(%rbp), %rax
	movl	4(%rax), %eax
	testl	%eax, %eax
	sete	%al
	movzbl	%al, %edx
	movl	-56(%rbp), %eax
	testl	%eax, %eax
	setg	%al
	movzbl	%al, %eax
	andl	%edx, %eax
	testl	%eax, %eax
	je	.L637
	movq	-80(%rbp), %rdx
	leaq	-56(%rbp), %rax
	movq	%rax, %rsi
	leaq	1340+fmsave_(%rip), %rdi
	call	fmipwr_
	jmp	.L635
.L637:
	movq	-80(%rbp), %rax
	movq	%rax, %rsi
	leaq	.LC6(%rip), %rdi
	call	fmi2m_
.L635:
	cmpl	$0, -16(%rbp)
	jns	.L638
	leaq	1308+fm1_(%rip), %rsi
	leaq	.LC6(%rip), %rdi
	call	fmi2m_
	movq	-80(%rbp), %rdx
	movq	-80(%rbp), %rax
	movq	%rax, %rsi
	leaq	1308+fm1_(%rip), %rdi
	call	fmdiv_
.L638:
	movl	-24(%rbp), %eax
	movl	%eax, 36+fmuser_(%rip)
	leaq	-48(%rbp), %r8
	leaq	-44(%rbp), %rdi
	leaq	-60(%rbp), %rcx
	leaq	-64(%rbp), %rdx
	movq	-80(%rbp), %rsi
	movq	-80(%rbp), %rax
	movq	%r8, %r9
	movq	%rdi, %r8
	movq	%rax, %rdi
	call	fmexit_
	nop
.L617:
	leave
	.cfi_def_cfa 7, 8
	ret
	.cfi_endproc
.LFE38:
	.size	fmexp_, .-fmexp_
	.globl	fmequ_
	.type	fmequ_, @function
fmequ_:
.LFB39:
	.cfi_startproc
	pushq	%rbp
	.cfi_def_cfa_offset 16
	.cfi_offset 6, -16
	movq	%rsp, %rbp
	.cfi_def_cfa_register 6
	subq	$80, %rsp
	movq	%rdi, -56(%rbp)
	movq	%rsi, -64(%rbp)
	movq	%rdx, -72(%rbp)
	movq	%rcx, -80(%rbp)
	movl	$0, -12(%rbp)
	movq	-56(%rbp), %rax
	movl	8(%rax), %edx
	movl	2652+fm_(%rip), %eax
	cmpl	%eax, %edx
	cmovle	%edx, %eax
	movl	%eax, -8(%rbp)
	movl	-8(%rbp), %eax
	leal	1(%rax), %edx
	movq	-64(%rbp), %rax
	movl	%edx, 8(%rax)
	movq	-56(%rbp), %rax
	movl	8(%rax), %edx
	movq	-64(%rbp), %rax
	movl	8(%rax), %eax
	cmpl	%eax, %edx
	jne	.L645
	movl	$1, -12(%rbp)
.L645:
	movl	-8(%rbp), %eax
	movl	2652+fm_(%rip), %ecx
	movl	2620+fm_(%rip), %edx
	addl	%ecx, %edx
	cmpl	%eax, %edx
	cmovg	%eax, %edx
	movq	-56(%rbp), %rax
	movl	%edx, 8(%rax)
	movl	$0, 32+fmuser_(%rip)
	movq	-56(%rbp), %rax
	movl	(%rax), %eax
	cltd
	xorl	%edx, %eax
	subl	%edx, %eax
	movl	2636+fm_(%rip), %edx
	cmpl	%edx, %eax
	jl	.L646
	movq	-80(%rbp), %rax
	movl	(%rax), %edx
	movl	$2, -4(%rbp)
.L648:
	cmpl	%edx, -4(%rbp)
	setg	%al
	movzbl	%al, %eax
	testl	%eax, %eax
	jne	.L681
	movl	-4(%rbp), %eax
	addl	$1, %eax
	cltq
	leaq	-1(%rax), %rcx
	movq	-64(%rbp), %rax
	movl	$0, (%rax,%rcx,4)
	addl	$1, -4(%rbp)
	jmp	.L648
.L681:
	nop
	movq	-56(%rbp), %rax
	movl	(%rax), %edx
	movq	-64(%rbp), %rax
	movl	%edx, (%rax)
	movq	-56(%rbp), %rax
	movl	4(%rax), %edx
	movq	-64(%rbp), %rax
	movl	%edx, 4(%rax)
	jmp	.L649
.L646:
	movq	-80(%rbp), %rax
	movl	(%rax), %edx
	movq	-72(%rbp), %rax
	movl	(%rax), %eax
	cmpl	%eax, %edx
	je	.L682
	movq	-80(%rbp), %rax
	movl	(%rax), %edx
	movq	-72(%rbp), %rax
	movl	(%rax), %eax
	cmpl	%eax, %edx
	jg	.L683
	movq	-80(%rbp), %rax
	movl	(%rax), %eax
	movl	%eax, -16(%rbp)
	movq	-80(%rbp), %rax
	movl	(%rax), %eax
	addl	$1, %eax
	movl	%eax, -20(%rbp)
	cmpl	$0, -12(%rbp)
	jne	.L652
	movl	-20(%rbp), %ecx
	movl	$1, -4(%rbp)
.L654:
	cmpl	%ecx, -4(%rbp)
	setg	%al
	movzbl	%al, %eax
	testl	%eax, %eax
	jne	.L684
	movl	-4(%rbp), %eax
	cltq
	leaq	-1(%rax), %rdx
	movl	-4(%rbp), %eax
	cltq
	leaq	-1(%rax), %rsi
	movq	-56(%rbp), %rax
	movl	(%rax,%rdx,4), %edx
	movq	-64(%rbp), %rax
	movl	%edx, (%rax,%rsi,4)
	addl	$1, -4(%rbp)
	jmp	.L654
.L684:
	nop
.L652:
	cmpl	$0, -16(%rbp)
	setle	%al
	movzbl	%al, %edx
	movl	40+fmuser_(%rip), %eax
	testl	%eax, %eax
	sete	%al
	movzbl	%al, %ecx
	movl	2616+fm_(%rip), %eax
	cmpl	$1, %eax
	setle	%al
	movzbl	%al, %eax
	andl	%ecx, %eax
	orl	%edx, %eax
	testl	%eax, %eax
	jne	.L685
	movq	-80(%rbp), %rax
	movl	(%rax), %eax
	addl	$2, %eax
	movl	%eax, -24(%rbp)
	movl	-24(%rbp), %eax
	cltq
	leaq	-1(%rax), %rdx
	movq	-56(%rbp), %rax
	movl	(%rax,%rdx,4), %eax
	addl	$1, %eax
	leal	(%rax,%rax), %edx
	movl	4+fmuser_(%rip), %eax
	cmpl	%eax, %edx
	jl	.L685
	movl	4+fmuser_(%rip), %eax
	andl	$1, %eax
	testl	%eax, %eax
	jne	.L655
	movl	-24(%rbp), %eax
	cltq
	leaq	-1(%rax), %rdx
	movq	-56(%rbp), %rax
	movl	(%rax,%rdx,4), %eax
	leal	(%rax,%rax), %edx
	movl	4+fmuser_(%rip), %eax
	cmpl	%eax, %edx
	jl	.L685
	movl	-24(%rbp), %eax
	cltq
	leaq	-1(%rax), %rdx
	movq	-56(%rbp), %rax
	movl	(%rax,%rdx,4), %eax
	leal	(%rax,%rax), %edx
	movl	4+fmuser_(%rip), %eax
	cmpl	%eax, %edx
	jne	.L656
	movq	-72(%rbp), %rax
	movl	(%rax), %eax
	cmpl	%eax, -24(%rbp)
	jg	.L657
	movl	-24(%rbp), %edx
	movq	-72(%rbp), %rax
	movl	(%rax), %eax
	movl	%edx, -4(%rbp)
.L659:
	cmpl	%eax, -4(%rbp)
	setg	%dl
	movzbl	%dl, %edx
	testl	%edx, %edx
	jne	.L686
	movl	-4(%rbp), %edx
	addl	$1, %edx
	movslq	%edx, %rdx
	leaq	-1(%rdx), %rcx
	movq	-56(%rbp), %rdx
	movl	(%rdx,%rcx,4), %edx
	testl	%edx, %edx
	jg	.L656
	addl	$1, -4(%rbp)
	jmp	.L659
.L686:
	nop
.L657:
	movl	-20(%rbp), %eax
	cltq
	leaq	-1(%rax), %rdx
	movq	-64(%rbp), %rax
	movl	(%rax,%rdx,4), %eax
	andl	$1, %eax
	testl	%eax, %eax
	je	.L685
	jmp	.L656
.L655:
	movl	-24(%rbp), %eax
	cltq
	leaq	-1(%rax), %rdx
	movq	-56(%rbp), %rax
	movl	(%rax,%rdx,4), %eax
	addl	%eax, %eax
	leal	1(%rax), %edx
	movl	4+fmuser_(%rip), %eax
	cmpl	%eax, %edx
	jne	.L656
	movq	-72(%rbp), %rax
	movl	(%rax), %eax
	cmpl	%eax, -24(%rbp)
	jg	.L656
	movl	-24(%rbp), %edx
	movq	-72(%rbp), %rax
	movl	(%rax), %eax
	movl	%edx, -4(%rbp)
.L661:
	cmpl	%eax, -4(%rbp)
	setg	%dl
	movzbl	%dl, %edx
	testl	%edx, %edx
	jne	.L687
	movl	-4(%rbp), %edx
	addl	$1, %edx
	movslq	%edx, %rdx
	leaq	-1(%rdx), %rcx
	movq	-56(%rbp), %rdx
	movl	(%rdx,%rcx,4), %edx
	addl	$1, %edx
	leal	(%rdx,%rdx), %ecx
	movl	4+fmuser_(%rip), %edx
	cmpl	%edx, %ecx
	jl	.L685
	movl	-4(%rbp), %edx
	addl	$1, %edx
	movslq	%edx, %rdx
	leaq	-1(%rdx), %rcx
	movq	-56(%rbp), %rdx
	movl	(%rdx,%rcx,4), %edx
	leal	(%rdx,%rdx), %ecx
	movl	4+fmuser_(%rip), %edx
	cmpl	%edx, %ecx
	jg	.L656
	addl	$1, -4(%rbp)
	jmp	.L661
.L687:
	nop
	jmp	.L649
.L656:
	movl	-16(%rbp), %eax
	addl	$1, %eax
	cltq
	leaq	-1(%rax), %rdx
	movq	-64(%rbp), %rax
	movl	(%rax,%rdx,4), %eax
	movl	-16(%rbp), %edx
	addl	$1, %edx
	movslq	%edx, %rdx
	subq	$1, %rdx
	leal	1(%rax), %ecx
	movq	-64(%rbp), %rax
	movl	%ecx, (%rax,%rdx,4)
	movl	-16(%rbp), %eax
	addl	$2, %eax
	cltq
	leaq	-1(%rax), %rdx
	movq	-64(%rbp), %rax
	movl	$0, (%rax,%rdx,4)
	movq	-64(%rbp), %rax
	movl	4(%rax), %eax
	movl	%eax, -28(%rbp)
	movq	-64(%rbp), %rax
	movl	4(%rax), %eax
	cltd
	xorl	%edx, %eax
	subl	%edx, %eax
	movq	-64(%rbp), %rdx
	movl	%eax, 4(%rdx)
	movl	-16(%rbp), %eax
	addl	$1, %eax
	movl	%eax, -32(%rbp)
	cmpl	$2, -32(%rbp)
	jle	.L662
	movl	-32(%rbp), %eax
	addl	$1, %eax
	movl	%eax, -8(%rbp)
	movl	-32(%rbp), %ecx
	movl	$3, -4(%rbp)
.L665:
	cmpl	%ecx, -4(%rbp)
	setg	%al
	movzbl	%al, %eax
	testl	%eax, %eax
	jne	.L688
	subl	$1, -8(%rbp)
	movl	-8(%rbp), %eax
	cltq
	leaq	-1(%rax), %rdx
	movq	-64(%rbp), %rax
	movl	(%rax,%rdx,4), %edx
	movl	4+fmuser_(%rip), %eax
	cmpl	%eax, %edx
	jl	.L689
	movl	-8(%rbp), %eax
	subl	$1, %eax
	cltq
	leaq	-1(%rax), %rdx
	movq	-64(%rbp), %rax
	movl	(%rax,%rdx,4), %esi
	movl	-8(%rbp), %eax
	cltq
	leaq	-1(%rax), %rdx
	movq	-64(%rbp), %rax
	movl	(%rax,%rdx,4), %eax
	movl	4+fmuser_(%rip), %edi
	cltd
	idivl	%edi
	movl	%eax, %edi
	movl	-8(%rbp), %eax
	subl	$1, %eax
	cltq
	leaq	-1(%rax), %rdx
	addl	%edi, %esi
	movq	-64(%rbp), %rax
	movl	%esi, (%rax,%rdx,4)
	movl	-8(%rbp), %eax
	cltq
	leaq	-1(%rax), %rdx
	movq	-64(%rbp), %rax
	movl	(%rax,%rdx,4), %eax
	movl	4+fmuser_(%rip), %edi
	movl	-8(%rbp), %edx
	movslq	%edx, %rdx
	leaq	-1(%rdx), %rsi
	cltd
	idivl	%edi
	movq	-64(%rbp), %rax
	movl	%edx, (%rax,%rsi,4)
	addl	$1, -4(%rbp)
	jmp	.L665
.L688:
	nop
.L662:
	movq	-64(%rbp), %rax
	movl	4(%rax), %edx
	movl	4+fmuser_(%rip), %eax
	cmpl	%eax, %edx
	jl	.L689
	cmpl	$3, -32(%rbp)
	jle	.L666
	movl	-32(%rbp), %eax
	addl	$1, %eax
	movl	%eax, -8(%rbp)
	movl	-32(%rbp), %ecx
	movl	$4, -4(%rbp)
.L668:
	cmpl	%ecx, -4(%rbp)
	setg	%al
	movzbl	%al, %eax
	testl	%eax, %eax
	jne	.L690
	subl	$1, -8(%rbp)
	movl	-8(%rbp), %eax
	subl	$1, %eax
	cltq
	leaq	-1(%rax), %rdx
	movl	-8(%rbp), %eax
	cltq
	leaq	-1(%rax), %rsi
	movq	-64(%rbp), %rax
	movl	(%rax,%rdx,4), %edx
	movq	-64(%rbp), %rax
	movl	%edx, (%rax,%rsi,4)
	addl	$1, -4(%rbp)
	jmp	.L668
.L690:
	nop
.L666:
	cmpl	$2, -32(%rbp)
	jle	.L669
	movq	-64(%rbp), %rax
	movl	4(%rax), %eax
	movl	4+fmuser_(%rip), %ecx
	cltd
	idivl	%ecx
	movq	-64(%rbp), %rax
	movl	%edx, 8(%rax)
.L669:
	movq	-64(%rbp), %rax
	movl	4(%rax), %eax
	movl	4+fmuser_(%rip), %edi
	cltd
	idivl	%edi
	movl	%eax, %edx
	movq	-64(%rbp), %rax
	movl	%edx, 4(%rax)
	movq	-64(%rbp), %rax
	movl	(%rax), %eax
	leal	1(%rax), %edx
	movq	-64(%rbp), %rax
	movl	%edx, (%rax)
	jmp	.L664
.L689:
	nop
.L664:
	cmpl	$0, -28(%rbp)
	jns	.L691
	movq	-64(%rbp), %rax
	movl	4(%rax), %eax
	negl	%eax
	movl	%eax, %edx
	movq	-64(%rbp), %rax
	movl	%edx, 4(%rax)
	jmp	.L691
.L682:
	nop
	cmpl	$0, -12(%rbp)
	jne	.L692
	movq	-72(%rbp), %rax
	movl	(%rax), %eax
	addl	$1, %eax
	movl	%eax, -36(%rbp)
	movl	-36(%rbp), %ecx
	movl	$1, -4(%rbp)
.L673:
	cmpl	%ecx, -4(%rbp)
	setg	%al
	movzbl	%al, %eax
	testl	%eax, %eax
	jne	.L693
	movl	-4(%rbp), %eax
	cltq
	leaq	-1(%rax), %rdx
	movl	-4(%rbp), %eax
	cltq
	leaq	-1(%rax), %rsi
	movq	-56(%rbp), %rax
	movl	(%rax,%rdx,4), %edx
	movq	-64(%rbp), %rax
	movl	%edx, (%rax,%rsi,4)
	addl	$1, -4(%rbp)
	jmp	.L673
.L693:
	nop
	jmp	.L692
.L683:
	nop
	cmpl	$0, -12(%rbp)
	jne	.L674
	movq	-72(%rbp), %rax
	movl	(%rax), %eax
	addl	$1, %eax
	movl	%eax, -36(%rbp)
	movl	-36(%rbp), %ecx
	movl	$1, -4(%rbp)
.L676:
	cmpl	%ecx, -4(%rbp)
	setg	%al
	movzbl	%al, %eax
	testl	%eax, %eax
	jne	.L694
	movl	-4(%rbp), %eax
	cltq
	leaq	-1(%rax), %rdx
	movl	-4(%rbp), %eax
	cltq
	leaq	-1(%rax), %rsi
	movq	-56(%rbp), %rax
	movl	(%rax,%rdx,4), %edx
	movq	-64(%rbp), %rax
	movl	%edx, (%rax,%rsi,4)
	addl	$1, -4(%rbp)
	jmp	.L676
.L694:
	nop
.L674:
	movq	-72(%rbp), %rax
	movl	(%rax), %eax
	addl	$2, %eax
	movl	%eax, -40(%rbp)
	movq	-80(%rbp), %rax
	movl	(%rax), %eax
	addl	$1, %eax
	movl	%eax, -44(%rbp)
	movl	-40(%rbp), %eax
	movl	-44(%rbp), %edx
	movl	%eax, -4(%rbp)
.L677:
	cmpl	%edx, -4(%rbp)
	setg	%al
	movzbl	%al, %eax
	testl	%eax, %eax
	jne	.L685
	movl	-4(%rbp), %eax
	cltq
	leaq	-1(%rax), %rcx
	movq	-64(%rbp), %rax
	movl	$0, (%rax,%rcx,4)
	addl	$1, -4(%rbp)
	jmp	.L677
.L685:
	nop
	jmp	.L649
.L691:
	nop
	jmp	.L649
.L692:
	nop
.L649:
	movq	-64(%rbp), %rax
	movl	(%rax), %eax
	cltd
	xorl	%edx, %eax
	subl	%edx, %eax
	movl	2620+fm_(%rip), %edx
	cmpl	%edx, %eax
	jle	.L695
	movq	-64(%rbp), %rax
	movl	(%rax), %edx
	movl	2640+fm_(%rip), %eax
	cmpl	%eax, %edx
	setne	%al
	movzbl	%al, %edx
	movq	-64(%rbp), %rax
	movl	4(%rax), %eax
	cmpl	$1, %eax
	setne	%al
	movzbl	%al, %eax
	orl	%edx, %eax
	testl	%eax, %eax
	je	.L679
	movl	36+fmuser_(%rip), %eax
	movl	%eax, -48(%rbp)
	movl	$0, 36+fmuser_(%rip)
	movl	2616+fm_(%rip), %eax
	addl	$1, %eax
	movl	%eax, 2616+fm_(%rip)
	movq	-64(%rbp), %rax
	movq	%rax, %rdi
	call	fmtrap_
	movl	2616+fm_(%rip), %eax
	subl	$1, %eax
	movl	%eax, 2616+fm_(%rip)
	movl	-48(%rbp), %eax
	movl	%eax, 36+fmuser_(%rip)
.L679:
	movq	-64(%rbp), %rax
	movl	(%rax), %edx
	movl	2640+fm_(%rip), %eax
	cmpl	%eax, %edx
	jne	.L695
	movl	$-4, 32+fmuser_(%rip)
	nop
.L695:
	nop
	leave
	.cfi_def_cfa 7, 8
	ret
	.cfi_endproc
.LFE39:
	.size	fmequ_, .-fmequ_
	.globl	fmdivi_
	.type	fmdivi_, @function
fmdivi_:
.LFB40:
	.cfi_startproc
	pushq	%rbp
	.cfi_def_cfa_offset 16
	.cfi_offset 6, -16
	movq	%rsp, %rbp
	.cfi_def_cfa_register 6
	subq	$96, %rsp
	movq	%rdi, -72(%rbp)
	movq	%rsi, -80(%rbp)
	movq	%rdx, -88(%rbp)
	movl	2616+fm_(%rip), %eax
	addl	$1, %eax
	movl	%eax, 2616+fm_(%rip)
	movl	2616+fm_(%rip), %eax
	cltq
	subq	$1, %rax
	addq	$665, %rax
	leaq	0(,%rax,4), %rdx
	leaq	fm_(%rip), %rax
	movl	$13, (%rdx,%rax)
	movl	24+fmuser_(%rip), %eax
	testl	%eax, %eax
	je	.L697
	movq	-72(%rbp), %rdx
	movq	-72(%rbp), %rax
	leaq	.LC6(%rip), %rcx
	movq	%rax, %rsi
	leaq	.LC11(%rip), %rdi
	call	fmntr_
	movq	-80(%rbp), %rax
	leaq	.LC5(%rip), %rdx
	movq	%rax, %rsi
	leaq	.LC11(%rip), %rdi
	call	fmntri_
.L697:
	movl	$0, 32+fmuser_(%rip)
	movl	fmuser_(%rip), %eax
	addl	$1, %eax
	movl	%eax, -24(%rbp)
	movq	-72(%rbp), %rax
	movl	(%rax), %edx
	movl	2640+fm_(%rip), %eax
	cmpl	%eax, %edx
	sete	%al
	movzbl	%al, %edx
	movq	-80(%rbp), %rax
	movl	(%rax), %eax
	testl	%eax, %eax
	sete	%al
	movzbl	%al, %eax
	orl	%edx, %eax
	testl	%eax, %eax
	je	.L698
	movq	-72(%rbp), %rax
	movl	(%rax), %eax
	movl	%eax, -52(%rbp)
	movq	-88(%rbp), %rax
	movq	%rax, %rsi
	leaq	.LC5(%rip), %rdi
	call	fmim_
	movl	2640+fm_(%rip), %edx
	movq	-88(%rbp), %rax
	movl	%edx, (%rax)
	movq	-88(%rbp), %rax
	movl	$1, 4(%rax)
	movl	$-4, 32+fmuser_(%rip)
	movl	2640+fm_(%rip), %eax
	cmpl	%eax, -52(%rbp)
	je	.L699
	call	fmwarn_
.L699:
	movl	24+fmuser_(%rip), %eax
	testl	%eax, %eax
	je	.L700
	movq	-88(%rbp), %rdx
	movq	-88(%rbp), %rax
	leaq	.LC6(%rip), %rcx
	movq	%rax, %rsi
	leaq	.LC6(%rip), %rdi
	call	fmntr_
.L700:
	movl	2616+fm_(%rip), %eax
	subl	$1, %eax
	movl	%eax, 2616+fm_(%rip)
	jmp	.L696
.L698:
	movq	-80(%rbp), %rax
	movl	(%rax), %eax
	cltd
	xorl	%edx, %eax
	subl	%edx, %eax
	cmpl	$1, %eax
	jne	.L702
	movl	-24(%rbp), %ecx
	movl	$1, -4(%rbp)
.L704:
	cmpl	%ecx, -4(%rbp)
	setg	%al
	movzbl	%al, %eax
	testl	%eax, %eax
	jne	.L733
	movl	-4(%rbp), %eax
	cltq
	leaq	-1(%rax), %rdx
	movl	-4(%rbp), %eax
	cltq
	leaq	-1(%rax), %rsi
	movq	-72(%rbp), %rax
	movl	(%rax,%rdx,4), %edx
	movq	-88(%rbp), %rax
	movl	%edx, (%rax,%rsi,4)
	addl	$1, -4(%rbp)
	jmp	.L704
.L733:
	nop
	movq	-72(%rbp), %rax
	movl	4(%rax), %edx
	movq	-80(%rbp), %rax
	movl	(%rax), %eax
	imull	%eax, %edx
	movq	-88(%rbp), %rax
	movl	%edx, 4(%rax)
	movq	-72(%rbp), %rax
	movl	(%rax), %edx
	movl	2636+fm_(%rip), %eax
	cmpl	%eax, %edx
	jne	.L705
	movl	$-5, 32+fmuser_(%rip)
.L705:
	movq	-72(%rbp), %rax
	movl	(%rax), %edx
	movl	2632+fm_(%rip), %eax
	cmpl	%eax, %edx
	jne	.L706
	movl	$-6, 32+fmuser_(%rip)
.L706:
	movl	24+fmuser_(%rip), %eax
	testl	%eax, %eax
	je	.L707
	movq	-88(%rbp), %rdx
	movq	-88(%rbp), %rax
	leaq	.LC6(%rip), %rcx
	movq	%rax, %rsi
	leaq	.LC6(%rip), %rdi
	call	fmntr_
.L707:
	movl	2616+fm_(%rip), %eax
	subl	$1, %eax
	movl	%eax, 2616+fm_(%rip)
	jmp	.L696
.L702:
	movq	-72(%rbp), %rax
	movl	4(%rax), %eax
	testl	%eax, %eax
	jne	.L708
	movl	-24(%rbp), %edx
	movl	$1, -4(%rbp)
.L710:
	cmpl	%edx, -4(%rbp)
	setg	%al
	movzbl	%al, %eax
	testl	%eax, %eax
	jne	.L734
	movl	-4(%rbp), %eax
	cltq
	leaq	-1(%rax), %rcx
	movq	-88(%rbp), %rax
	movl	$0, (%rax,%rcx,4)
	addl	$1, -4(%rbp)
	jmp	.L710
.L734:
	nop
	movl	24+fmuser_(%rip), %eax
	testl	%eax, %eax
	je	.L711
	movq	-88(%rbp), %rdx
	movq	-88(%rbp), %rax
	leaq	.LC6(%rip), %rcx
	movq	%rax, %rsi
	leaq	.LC6(%rip), %rdi
	call	fmntr_
.L711:
	movl	2616+fm_(%rip), %eax
	subl	$1, %eax
	movl	%eax, 2616+fm_(%rip)
	jmp	.L696
.L708:
	movq	-72(%rbp), %rax
	movl	(%rax), %edx
	movl	2632+fm_(%rip), %eax
	cmpl	%eax, %edx
	jne	.L712
	movq	-72(%rbp), %rax
	movl	4(%rax), %eax
	movl	%eax, -32(%rbp)
	movq	-88(%rbp), %rax
	movq	%rax, %rsi
	leaq	.LC5(%rip), %rdi
	call	fmim_
	movl	2632+fm_(%rip), %edx
	movq	-88(%rbp), %rax
	movl	%edx, (%rax)
	movq	-88(%rbp), %rax
	movl	$1, 4(%rax)
	movl	-32(%rbp), %eax
	shrl	$31, %eax
	movl	%eax, %edx
	movq	-80(%rbp), %rax
	movl	(%rax), %eax
	testl	%eax, %eax
	setg	%al
	movzbl	%al, %eax
	movl	%edx, %ecx
	andl	%eax, %ecx
	cmpl	$0, -32(%rbp)
	setg	%al
	movzbl	%al, %edx
	movq	-80(%rbp), %rax
	movl	(%rax), %eax
	shrl	$31, %eax
	andl	%edx, %eax
	orl	%ecx, %eax
	testl	%eax, %eax
	je	.L713
	movq	-88(%rbp), %rax
	movl	$-1, 4(%rax)
.L713:
	movl	$-6, 32+fmuser_(%rip)
	movl	24+fmuser_(%rip), %eax
	testl	%eax, %eax
	je	.L714
	movq	-88(%rbp), %rdx
	movq	-88(%rbp), %rax
	leaq	.LC6(%rip), %rcx
	movq	%rax, %rsi
	leaq	.LC6(%rip), %rdi
	call	fmntr_
.L714:
	movl	2616+fm_(%rip), %eax
	subl	$1, %eax
	movl	%eax, 2616+fm_(%rip)
	jmp	.L696
.L712:
	movq	-72(%rbp), %rax
	movl	(%rax), %edx
	movl	2636+fm_(%rip), %eax
	cmpl	%eax, %edx
	jne	.L715
	movq	-88(%rbp), %rax
	movq	%rax, %rsi
	leaq	.LC5(%rip), %rdi
	call	fmim_
	movl	2640+fm_(%rip), %edx
	movq	-88(%rbp), %rax
	movl	%edx, (%rax)
	movq	-88(%rbp), %rax
	movl	$1, 4(%rax)
	movl	$-4, 32+fmuser_(%rip)
	call	fmwarn_
	movl	24+fmuser_(%rip), %eax
	testl	%eax, %eax
	je	.L716
	movq	-88(%rbp), %rdx
	movq	-88(%rbp), %rax
	leaq	.LC6(%rip), %rcx
	movq	%rax, %rsi
	leaq	.LC6(%rip), %rdi
	call	fmntr_
.L716:
	movl	2616+fm_(%rip), %eax
	subl	$1, %eax
	movl	%eax, 2616+fm_(%rip)
	jmp	.L696
.L715:
	movl	2616+fm_(%rip), %eax
	cmpl	$1, %eax
	jle	.L717
	movl	$1, -56(%rbp)
	jmp	.L718
.L717:
	movl	4+fmuser_(%rip), %eax
	cvtsi2ssl	%eax, %xmm0
	movss	%xmm0, -28(%rbp)
	movl	-28(%rbp), %eax
	movd	%eax, %xmm0
	call	logf@PLT
	movss	.LC28(%rip), %xmm1
	divss	%xmm0, %xmm1
	movss	.LC29(%rip), %xmm0
	addss	%xmm1, %xmm0
	cvttss2sil	%xmm0, %eax
	movl	%eax, -56(%rbp)
.L718:
	movl	fmuser_(%rip), %eax
	addl	$1, %eax
	movl	%eax, -24(%rbp)
	movq	-80(%rbp), %rax
	movl	(%rax), %eax
	cltd
	xorl	%edx, %eax
	subl	%edx, %eax
	movl	2652+fm_(%rip), %edx
	cmpl	%edx, %eax
	jle	.L719
	movq	-80(%rbp), %rax
	leaq	fm1_(%rip), %rsi
	movq	%rax, %rdi
	call	fmim_
	movq	-88(%rbp), %rdx
	movq	-72(%rbp), %rax
	leaq	fm1_(%rip), %rsi
	movq	%rax, %rdi
	call	fmdiv2_
	movl	24+fmuser_(%rip), %eax
	testl	%eax, %eax
	je	.L720
	movq	-88(%rbp), %rdx
	movq	-88(%rbp), %rax
	leaq	.LC6(%rip), %rcx
	movq	%rax, %rsi
	leaq	.LC6(%rip), %rdi
	call	fmntr_
.L720:
	movl	2616+fm_(%rip), %eax
	subl	$1, %eax
	movl	%eax, 2616+fm_(%rip)
	jmp	.L696
.L719:
	movq	-72(%rbp), %rax
	movl	4(%rax), %eax
	movl	%eax, -32(%rbp)
	movq	-72(%rbp), %rax
	movl	4(%rax), %eax
	cltd
	xorl	%edx, %eax
	subl	%edx, %eax
	movq	-72(%rbp), %rdx
	movl	%eax, 4(%rdx)
	movq	-80(%rbp), %rax
	movl	(%rax), %edx
	movl	%edx, %eax
	sarl	$31, %eax
	xorl	%eax, %edx
	movl	%edx, -36(%rbp)
	subl	%eax, -36(%rbp)
	movl	$0, -16(%rbp)
	movl	-24(%rbp), %eax
	movl	$2, -4(%rbp)
.L723:
	cmpl	%eax, -4(%rbp)
	setg	%dl
	movzbl	%dl, %edx
	testl	%edx, %edx
	jne	.L735
	movl	-4(%rbp), %edx
	movl	%edx, -8(%rbp)
	movl	4+fmuser_(%rip), %edx
	movl	%edx, %ecx
	imull	-16(%rbp), %ecx
	movl	-4(%rbp), %edx
	movslq	%edx, %rdx
	leaq	-1(%rdx), %rsi
	movq	-72(%rbp), %rdx
	movl	(%rdx,%rsi,4), %edx
	addl	%ecx, %edx
	movl	%edx, -16(%rbp)
	movl	-16(%rbp), %edx
	cmpl	-36(%rbp), %edx
	jge	.L722
	addl	$1, -4(%rbp)
	jmp	.L723
.L735:
	nop
	addl	$1, -8(%rbp)
	movl	4+fmuser_(%rip), %eax
	movl	-16(%rbp), %edx
	imull	%edx, %eax
	movl	%eax, -16(%rbp)
	movl	-16(%rbp), %eax
	cmpl	-36(%rbp), %eax
	jl	.L735
.L722:
	movl	-8(%rbp), %eax
	addl	$1, %eax
	movl	%eax, -40(%rbp)
	movq	-72(%rbp), %rax
	movl	(%rax), %eax
	addl	$2, %eax
	subl	-8(%rbp), %eax
	movl	%eax, fm_(%rip)
	movl	-16(%rbp), %eax
	cltd
	idivl	-36(%rbp)
	movl	%eax, 4+fm_(%rip)
	movl	-16(%rbp), %eax
	cltd
	idivl	-36(%rbp)
	movl	%edx, -20(%rbp)
	movl	$2, -12(%rbp)
	movl	-40(%rbp), %eax
	cmpl	-24(%rbp), %eax
	jg	.L724
	movl	$3, %eax
	subl	-40(%rbp), %eax
	movl	%eax, -44(%rbp)
	movl	-40(%rbp), %eax
	movl	-24(%rbp), %ecx
	movl	%eax, -4(%rbp)
.L726:
	cmpl	%ecx, -4(%rbp)
	setg	%al
	movzbl	%al, %eax
	testl	%eax, %eax
	jne	.L736
	movl	4+fmuser_(%rip), %eax
	imull	-20(%rbp), %eax
	movl	%eax, %edx
	movl	-4(%rbp), %eax
	cltq
	leaq	-1(%rax), %rsi
	movq	-72(%rbp), %rax
	movl	(%rax,%rsi,4), %eax
	addl	%edx, %eax
	movl	%eax, -16(%rbp)
	movl	-44(%rbp), %edx
	movl	-4(%rbp), %eax
	addl	%edx, %eax
	cltq
	leaq	-1(%rax), %rsi
	movl	-16(%rbp), %eax
	cltd
	idivl	-36(%rbp)
	movl	%eax, %edi
	leaq	0(,%rsi,4), %rdx
	leaq	fm_(%rip), %rax
	movl	%edi, (%rdx,%rax)
	movl	-16(%rbp), %eax
	cltd
	idivl	-36(%rbp)
	movl	%edx, -20(%rbp)
	addl	$1, -4(%rbp)
	jmp	.L726
.L736:
	nop
	movl	-44(%rbp), %edx
	movl	-24(%rbp), %eax
	addl	%edx, %eax
	movl	%eax, -12(%rbp)
.L724:
	movl	-12(%rbp), %eax
	addl	$1, %eax
	movl	%eax, -40(%rbp)
	movl	-56(%rbp), %edx
	movl	-24(%rbp), %eax
	addl	%edx, %eax
	movl	%eax, -48(%rbp)
	movl	-40(%rbp), %eax
	cmpl	-48(%rbp), %eax
	jg	.L727
	movl	-40(%rbp), %eax
	movl	-48(%rbp), %ecx
	movl	%eax, -4(%rbp)
.L729:
	cmpl	%ecx, -4(%rbp)
	setg	%al
	movzbl	%al, %eax
	testl	%eax, %eax
	jne	.L737
	movl	4+fmuser_(%rip), %eax
	movl	-20(%rbp), %edx
	imull	%edx, %eax
	movl	%eax, -16(%rbp)
	movl	-4(%rbp), %eax
	cltq
	leaq	-1(%rax), %rsi
	movl	-16(%rbp), %eax
	cltd
	idivl	-36(%rbp)
	movl	%eax, %edi
	leaq	0(,%rsi,4), %rdx
	leaq	fm_(%rip), %rax
	movl	%edi, (%rdx,%rax)
	movl	-16(%rbp), %eax
	cltd
	idivl	-36(%rbp)
	movl	%edx, -20(%rbp)
	addl	$1, -4(%rbp)
	jmp	.L729
.L737:
	nop
.L727:
	movq	-72(%rbp), %rax
	movl	-32(%rbp), %edx
	movl	%edx, 4(%rax)
	leaq	-56(%rbp), %rax
	leaq	.LC5(%rip), %rdx
	movq	%rax, %rsi
	leaq	fmuser_(%rip), %rdi
	call	fmrnd_
	movq	-88(%rbp), %rax
	movq	%rax, %rdi
	call	fmmove_
	movl	-32(%rbp), %eax
	shrl	$31, %eax
	movl	%eax, %edx
	movq	-80(%rbp), %rax
	movl	(%rax), %eax
	testl	%eax, %eax
	setg	%al
	movzbl	%al, %eax
	movl	%edx, %ecx
	andl	%eax, %ecx
	cmpl	$0, -32(%rbp)
	setg	%al
	movzbl	%al, %edx
	movq	-80(%rbp), %rax
	movl	(%rax), %eax
	shrl	$31, %eax
	andl	%edx, %eax
	orl	%ecx, %eax
	testl	%eax, %eax
	je	.L730
	movq	-88(%rbp), %rax
	movl	4(%rax), %eax
	negl	%eax
	movl	%eax, %edx
	movq	-88(%rbp), %rax
	movl	%edx, 4(%rax)
.L730:
	movl	24+fmuser_(%rip), %eax
	testl	%eax, %eax
	je	.L731
	movq	-88(%rbp), %rdx
	movq	-88(%rbp), %rax
	leaq	.LC6(%rip), %rcx
	movq	%rax, %rsi
	leaq	.LC6(%rip), %rdi
	call	fmntr_
.L731:
	movl	2616+fm_(%rip), %eax
	subl	$1, %eax
	movl	%eax, 2616+fm_(%rip)
	nop
.L696:
	leave
	.cfi_def_cfa 7, 8
	ret
	.cfi_endproc
.LFE40:
	.size	fmdivi_, .-fmdivi_
	.section	.rodata
	.align 4
.LC51:
	.long	11
	.text
	.globl	fmdim_
	.type	fmdim_, @function
fmdim_:
.LFB41:
	.cfi_startproc
	pushq	%rbp
	.cfi_def_cfa_offset 16
	.cfi_offset 6, -16
	movq	%rsp, %rbp
	.cfi_def_cfa_register 6
	subq	$64, %rsp
	movq	%rdi, -40(%rbp)
	movq	%rsi, -48(%rbp)
	movq	%rdx, -56(%rbp)
	leaq	-16(%rbp), %rdi
	movq	-56(%rbp), %rsi
	movq	-48(%rbp), %rdx
	movq	-40(%rbp), %rax
	leaq	-12(%rbp), %rcx
	pushq	%rcx
	leaq	-8(%rbp), %rcx
	pushq	%rcx
	leaq	-20(%rbp), %rcx
	pushq	%rcx
	leaq	-24(%rbp), %rcx
	pushq	%rcx
	movq	%rdi, %r9
	movq	%rsi, %r8
	leaq	.LC11(%rip), %rcx
	movq	%rax, %rsi
	leaq	.LC51(%rip), %rdi
	call	fmentr_
	addq	$32, %rsp
	movl	-16(%rbp), %eax
	testl	%eax, %eax
	jne	.L738
	movl	$0, 2628+fm_(%rip)
	movl	36+fmuser_(%rip), %eax
	movl	%eax, -4(%rbp)
	movl	$0, 36+fmuser_(%rip)
	movl	-20(%rbp), %eax
	movl	%eax, 2620+fm_(%rip)
	leaq	-24(%rbp), %rdx
	movq	-40(%rbp), %rax
	leaq	fmuser_(%rip), %rcx
	leaq	fm1_(%rip), %rsi
	movq	%rax, %rdi
	call	fmequ_
	leaq	-24(%rbp), %rdx
	movq	-48(%rbp), %rax
	leaq	fmuser_(%rip), %rcx
	leaq	1308+fm1_(%rip), %rsi
	movq	%rax, %rdi
	call	fmequ_
	movl	$2, %ecx
	leaq	1308+fm1_(%rip), %rdx
	leaq	.LC34(%rip), %rsi
	leaq	fm1_(%rip), %rdi
	call	fmcomp_
	testl	%eax, %eax
	je	.L741
	movq	-56(%rbp), %rax
	movq	%rax, %rsi
	leaq	.LC5(%rip), %rdi
	call	fmi2m_
	jmp	.L742
.L741:
	movq	-56(%rbp), %rax
	movq	%rax, %rdx
	leaq	1308+fm1_(%rip), %rsi
	leaq	fm1_(%rip), %rdi
	call	fmsub_
.L742:
	movl	32+fmuser_(%rip), %eax
	cmpl	$1, %eax
	jne	.L743
	movl	$0, 32+fmuser_(%rip)
.L743:
	movl	-4(%rbp), %eax
	movl	%eax, 36+fmuser_(%rip)
	leaq	-12(%rbp), %r8
	leaq	-8(%rbp), %rdi
	leaq	-20(%rbp), %rcx
	leaq	-24(%rbp), %rdx
	movq	-56(%rbp), %rsi
	movq	-56(%rbp), %rax
	movq	%r8, %r9
	movq	%rdi, %r8
	movq	%rax, %rdi
	call	fmexit_
	nop
.L738:
	leave
	.cfi_def_cfa 7, 8
	ret
	.cfi_endproc
.LFE41:
	.size	fmdim_, .-fmdim_
	.globl	fmcosh_
	.type	fmcosh_, @function
fmcosh_:
.LFB42:
	.cfi_startproc
	pushq	%rbp
	.cfi_def_cfa_offset 16
	.cfi_offset 6, -16
	movq	%rsp, %rbp
	.cfi_def_cfa_register 6
	subq	$48, %rsp
	movq	%rdi, -40(%rbp)
	movq	%rsi, -48(%rbp)
	leaq	-16(%rbp), %rdi
	movq	-48(%rbp), %rsi
	movq	-40(%rbp), %rdx
	movq	-40(%rbp), %rax
	leaq	-12(%rbp), %rcx
	pushq	%rcx
	leaq	-8(%rbp), %rcx
	pushq	%rcx
	leaq	-20(%rbp), %rcx
	pushq	%rcx
	leaq	-24(%rbp), %rcx
	pushq	%rcx
	movq	%rdi, %r9
	movq	%rsi, %r8
	leaq	.LC6(%rip), %rcx
	movq	%rax, %rsi
	leaq	.LC47(%rip), %rdi
	call	fmentr_
	addq	$32, %rsp
	movl	-16(%rbp), %eax
	testl	%eax, %eax
	jne	.L745
	movl	36+fmuser_(%rip), %eax
	movl	%eax, -4(%rbp)
	movl	$0, 36+fmuser_(%rip)
	movl	$0, 2628+fm_(%rip)
	leaq	-24(%rbp), %rdx
	movq	-48(%rbp), %rsi
	movq	-40(%rbp), %rax
	leaq	fmuser_(%rip), %rcx
	movq	%rax, %rdi
	call	fmequ_
	movq	-48(%rbp), %rdx
	movq	-48(%rbp), %rax
	movq	%rdx, %rsi
	movq	%rax, %rdi
	call	fmexp_
	movq	-48(%rbp), %rax
	movl	(%rax), %edx
	movl	2636+fm_(%rip), %eax
	cmpl	%eax, %edx
	je	.L752
	movq	-48(%rbp), %rax
	movl	(%rax), %edx
	movl	2632+fm_(%rip), %eax
	cmpl	%eax, %edx
	jne	.L750
	movl	2636+fm_(%rip), %edx
	movq	-48(%rbp), %rax
	movl	%edx, (%rax)
	jmp	.L749
.L750:
	leaq	fm1_(%rip), %rsi
	leaq	.LC6(%rip), %rdi
	call	fmi2m_
	movq	-48(%rbp), %rax
	leaq	fm1_(%rip), %rdx
	movq	%rax, %rsi
	leaq	fm1_(%rip), %rdi
	call	fmdiv_
	movq	-48(%rbp), %rdx
	movq	-48(%rbp), %rax
	leaq	fm1_(%rip), %rsi
	movq	%rax, %rdi
	call	fmadd_
	movq	-48(%rbp), %rdx
	movq	-48(%rbp), %rax
	leaq	.LC11(%rip), %rsi
	movq	%rax, %rdi
	call	fmdivi_
	jmp	.L749
.L752:
	nop
.L749:
	movl	-4(%rbp), %eax
	movl	%eax, 36+fmuser_(%rip)
	leaq	-12(%rbp), %r8
	leaq	-8(%rbp), %rdi
	leaq	-20(%rbp), %rcx
	leaq	-24(%rbp), %rdx
	movq	-48(%rbp), %rsi
	movq	-48(%rbp), %rax
	movq	%r8, %r9
	movq	%rdi, %r8
	movq	%rax, %rdi
	call	fmexit_
	nop
.L745:
	leave
	.cfi_def_cfa 7, 8
	ret
	.cfi_endproc
.LFE42:
	.size	fmcosh_, .-fmcosh_
	.section	.rodata
	.align 4
.LC52:
	.long	9
	.text
	.globl	fmcos_
	.type	fmcos_, @function
fmcos_:
.LFB43:
	.cfi_startproc
	pushq	%rbp
	.cfi_def_cfa_offset 16
	.cfi_offset 6, -16
	movq	%rsp, %rbp
	.cfi_def_cfa_register 6
	subq	$64, %rsp
	movq	%rdi, -56(%rbp)
	movq	%rsi, -64(%rbp)
	leaq	-28(%rbp), %rdi
	movq	-64(%rbp), %rsi
	movq	-56(%rbp), %rdx
	movq	-56(%rbp), %rax
	leaq	-24(%rbp), %rcx
	pushq	%rcx
	leaq	-20(%rbp), %rcx
	pushq	%rcx
	leaq	-32(%rbp), %rcx
	pushq	%rcx
	leaq	-36(%rbp), %rcx
	pushq	%rcx
	movq	%rdi, %r9
	movq	%rsi, %r8
	leaq	.LC6(%rip), %rcx
	movq	%rax, %rsi
	leaq	.LC52(%rip), %rdi
	call	fmentr_
	addq	$32, %rsp
	movl	-28(%rbp), %eax
	testl	%eax, %eax
	jne	.L753
	leaq	-36(%rbp), %rdx
	movq	-64(%rbp), %rsi
	movq	-56(%rbp), %rax
	leaq	fmuser_(%rip), %rcx
	movq	%rax, %rdi
	call	fmequ_
	leaq	-16(%rbp), %rdi
	leaq	-8(%rbp), %rcx
	leaq	-12(%rbp), %rdx
	movq	-64(%rbp), %rsi
	movq	-64(%rbp), %rax
	movq	%rdi, %r8
	movq	%rax, %rdi
	call	fmrdc_
	movq	-64(%rbp), %rax
	movl	(%rax), %edx
	movl	2640+fm_(%rip), %eax
	cmpl	%eax, %edx
	je	.L756
	movl	16+fmuser_(%rip), %eax
	testl	%eax, %eax
	jne	.L757
	movl	4+fmsave_(%rip), %edx
	movl	4+fmuser_(%rip), %eax
	cmpl	%eax, %edx
	setne	%al
	movzbl	%al, %edx
	movl	fmsave_(%rip), %ecx
	movl	fmuser_(%rip), %eax
	cmpl	%eax, %ecx
	setl	%al
	movzbl	%al, %eax
	orl	%edx, %eax
	testl	%eax, %eax
	je	.L758
	movl	fmuser_(%rip), %eax
	movl	%eax, -4(%rbp)
	movl	fmuser_(%rip), %eax
	leal	2(%rax), %edx
	movl	2656+fm_(%rip), %eax
	cmpl	%eax, %edx
	cmovle	%edx, %eax
	movl	%eax, fmuser_(%rip)
	leaq	32+fmsave_(%rip), %rdi
	call	fmpi2_
	movl	4+fmuser_(%rip), %eax
	movl	%eax, 4+fmsave_(%rip)
	movl	fmuser_(%rip), %eax
	movl	%eax, fmsave_(%rip)
	movl	-4(%rbp), %eax
	movl	%eax, fmuser_(%rip)
.L758:
	movq	-64(%rbp), %rdx
	movq	-64(%rbp), %rax
	leaq	32+fmsave_(%rip), %rsi
	movq	%rax, %rdi
	call	fmmpy_
	movq	-64(%rbp), %rdx
	movq	-64(%rbp), %rax
	leaq	.LC17(%rip), %rsi
	movq	%rax, %rdi
	call	fmdivi_
.L757:
	movq	-64(%rbp), %rax
	movl	(%rax), %edx
	movl	2640+fm_(%rip), %eax
	cmpl	%eax, %edx
	je	.L759
	movl	-16(%rbp), %eax
	testl	%eax, %eax
	jne	.L760
	movq	-64(%rbp), %rdx
	movq	-64(%rbp), %rax
	movq	%rdx, %rsi
	movq	%rax, %rdi
	call	fmcos2_
	jmp	.L759
.L760:
	movq	-64(%rbp), %rdx
	movq	-64(%rbp), %rax
	movq	%rdx, %rsi
	movq	%rax, %rdi
	call	fmsin2_
.L759:
	movl	-8(%rbp), %eax
	cmpl	$-1, %eax
	jne	.L756
	movq	-64(%rbp), %rax
	movl	4(%rax), %eax
	negl	%eax
	movl	%eax, %edx
	movq	-64(%rbp), %rax
	movl	%edx, 4(%rax)
.L756:
	leaq	-24(%rbp), %r8
	leaq	-20(%rbp), %rdi
	leaq	-32(%rbp), %rcx
	leaq	-36(%rbp), %rdx
	movq	-64(%rbp), %rsi
	movq	-64(%rbp), %rax
	movq	%r8, %r9
	movq	%rdi, %r8
	movq	%rax, %rdi
	call	fmexit_
	nop
.L753:
	leave
	.cfi_def_cfa 7, 8
	ret
	.cfi_endproc
.LFE43:
	.size	fmcos_, .-fmcos_
	.section	.rodata
.LC53:
	.ascii	"(' INPUT TO FMCOMP')"
.LC54:
	.ascii	"(7X,'.',A2,'.')"
.LC55:
	.ascii	"EQ"
.LC56:
	.ascii	"NE"
.LC57:
	.ascii	"LE"
	.align 8
.LC58:
	.ascii	"(/' ERROR OF TYPE KFLAG = -4 IN FM PACKAGE IN ROUTINE',     "
	.ascii	"       ' FMCOMP'//1X,A,' IS NOT ONE OF THE SIX RECOGNIZED', "
	.ascii	"             ' COMPARISONS.'//' .FALSE. HAS BEEN RETURNED.'/"
	.ascii	")"
	.align 8
.LC59:
	.ascii	"(/' ERROR OF TYPE KFLAG = -4 IN FM PACKAGE IN ROUTINE',     "
	.ascii	"       ' FMCOMP'//' TWO NUMBERS IN THE SAME OVERFLOW OR',   "
	.ascii	"             ' UNDERLOW CATEGORY CANNOT BE COMPARED.'//     "
	.ascii	"                   ' .FALSE. HAS BEEN RETURNED.'/)"
	.align 8
.LC60:
	.ascii	"(' FMCOMP',15X,'CALL LEVEL =',I2,5X,'JBASE =',              "
	.ascii	"       I10,5X,'NDIG =',I6)"
	.align 8
.LC61:
	.ascii	"(' FMCOMP',6X,'CALL LEVEL =',I2,4X,'JBASE =',               "
	.ascii	"       I10,4X,'NDIG =',I6,4X,'KFLAG =',I3)"
.LC62:
	.ascii	"(7X,'.TRUE.')"
.LC63:
	.ascii	"(7X,'.FALSE.')"
	.text
	.globl	fmcomp_
	.type	fmcomp_, @function
fmcomp_:
.LFB44:
	.cfi_startproc
	pushq	%rbp
	.cfi_def_cfa_offset 16
	.cfi_offset 6, -16
	movq	%rsp, %rbp
	.cfi_def_cfa_register 6
	pushq	%r12
	pushq	%rbx
	subq	$576, %rsp
	.cfi_offset 12, -24
	.cfi_offset 3, -32
	movq	%rdi, -568(%rbp)
	movq	%rsi, -576(%rbp)
	movq	%rdx, -584(%rbp)
	movq	%rcx, -592(%rbp)
	movl	2616+fm_(%rip), %eax
	addl	$1, %eax
	movl	%eax, 2616+fm_(%rip)
	movl	2616+fm_(%rip), %eax
	cltq
	subq	$1, %rax
	addq	$665, %rax
	leaq	0(,%rax,4), %rdx
	leaq	fm_(%rip), %rax
	movl	$8, (%rdx,%rax)
	movl	2616+fm_(%rip), %edx
	movl	28+fmuser_(%rip), %eax
	cmpl	%eax, %edx
	setle	%al
	movzbl	%al, %ecx
	movl	24+fmuser_(%rip), %eax
	cltd
	xorl	%edx, %eax
	subl	%edx, %eax
	cmpl	$1, %eax
	setg	%al
	movzbl	%al, %eax
	andl	%ecx, %eax
	testl	%eax, %eax
	je	.L763
	leaq	.LC1(%rip), %rax
	movq	%rax, -552(%rbp)
	movl	$1970, -544(%rbp)
	leaq	.LC53(%rip), %rax
	movq	%rax, -480(%rbp)
	movq	$20, -472(%rbp)
	movl	$4096, -560(%rbp)
	movl	20+fmuser_(%rip), %eax
	movl	%eax, -556(%rbp)
	leaq	-560(%rbp), %rax
	movq	%rax, %rdi
	call	_gfortran_st_write@PLT
	leaq	-560(%rbp), %rax
	movq	%rax, %rdi
	call	_gfortran_st_write_done@PLT
	movl	24+fmuser_(%rip), %eax
	testl	%eax, %eax
	jle	.L764
	movq	-568(%rbp), %rax
	movq	%rax, %rdi
	call	fmprnt_
	leaq	.LC1(%rip), %rax
	movq	%rax, -552(%rbp)
	movl	$1975, -544(%rbp)
	leaq	.LC54(%rip), %rax
	movq	%rax, -480(%rbp)
	movq	$15, -472(%rbp)
	movl	$4096, -560(%rbp)
	movl	20+fmuser_(%rip), %eax
	movl	%eax, -556(%rbp)
	leaq	-560(%rbp), %rax
	movq	%rax, %rdi
	call	_gfortran_st_write@PLT
	movq	-576(%rbp), %rcx
	leaq	-560(%rbp), %rax
	movl	$2, %edx
	movq	%rcx, %rsi
	movq	%rax, %rdi
	call	_gfortran_transfer_character_write@PLT
	leaq	-560(%rbp), %rax
	movq	%rax, %rdi
	call	_gfortran_st_write_done@PLT
	movq	-584(%rbp), %rax
	movq	%rax, %rdi
	call	fmprnt_
	jmp	.L763
.L764:
	movq	-568(%rbp), %rax
	leaq	fmuser_(%rip), %rsi
	movq	%rax, %rdi
	call	fmntrj_
	leaq	.LC1(%rip), %rax
	movq	%rax, -552(%rbp)
	movl	$1980, -544(%rbp)
	leaq	.LC54(%rip), %rax
	movq	%rax, -480(%rbp)
	movq	$15, -472(%rbp)
	movl	$4096, -560(%rbp)
	movl	20+fmuser_(%rip), %eax
	movl	%eax, -556(%rbp)
	leaq	-560(%rbp), %rax
	movq	%rax, %rdi
	call	_gfortran_st_write@PLT
	movq	-576(%rbp), %rcx
	leaq	-560(%rbp), %rax
	movl	$2, %edx
	movq	%rcx, %rsi
	movq	%rax, %rdi
	call	_gfortran_transfer_character_write@PLT
	leaq	-560(%rbp), %rax
	movq	%rax, %rdi
	call	_gfortran_st_write_done@PLT
	movq	-584(%rbp), %rax
	leaq	fmuser_(%rip), %rsi
	movq	%rax, %rdi
	call	fmntrj_
.L763:
	movq	-576(%rbp), %rax
	movl	$2, %edx
	leaq	.LC55(%rip), %rsi
	movq	%rax, %rdi
	call	memcmp@PLT
	testl	%eax, %eax
	setne	%al
	movzbl	%al, %ebx
	movq	-576(%rbp), %rax
	movl	$2, %edx
	leaq	.LC56(%rip), %rsi
	movq	%rax, %rdi
	call	memcmp@PLT
	testl	%eax, %eax
	setne	%al
	movzbl	%al, %eax
	andl	%eax, %ebx
	movq	-576(%rbp), %rax
	movl	$2, %edx
	leaq	.LC34(%rip), %rsi
	movq	%rax, %rdi
	call	memcmp@PLT
	testl	%eax, %eax
	setne	%al
	movzbl	%al, %eax
	andl	%eax, %ebx
	movq	-576(%rbp), %rax
	movl	$2, %edx
	leaq	.LC33(%rip), %rsi
	movq	%rax, %rdi
	call	memcmp@PLT
	testl	%eax, %eax
	setne	%al
	movzbl	%al, %eax
	andl	%eax, %ebx
	movq	-576(%rbp), %rax
	movl	$2, %edx
	leaq	.LC57(%rip), %rsi
	movq	%rax, %rdi
	call	memcmp@PLT
	testl	%eax, %eax
	setne	%al
	movzbl	%al, %eax
	andl	%eax, %ebx
	movq	-576(%rbp), %rax
	movl	$2, %edx
	leaq	.LC32(%rip), %rsi
	movq	%rax, %rdi
	call	memcmp@PLT
	testl	%eax, %eax
	setne	%al
	movzbl	%al, %eax
	andl	%ebx, %eax
	testl	%eax, %eax
	je	.L765
	movl	$-4, 32+fmuser_(%rip)
	movl	$0, -32(%rbp)
	movl	36+fmuser_(%rip), %eax
	testl	%eax, %eax
	jle	.L766
	leaq	.LC1(%rip), %rax
	movq	%rax, -552(%rbp)
	movl	$1996, -544(%rbp)
	leaq	.LC58(%rip), %rax
	movq	%rax, -480(%rbp)
	movq	$181, -472(%rbp)
	movl	$4096, -560(%rbp)
	movl	20+fmuser_(%rip), %eax
	movl	%eax, -556(%rbp)
	leaq	-560(%rbp), %rax
	movq	%rax, %rdi
	call	_gfortran_st_write@PLT
	movq	-576(%rbp), %rcx
	leaq	-560(%rbp), %rax
	movl	$2, %edx
	movq	%rcx, %rsi
	movq	%rax, %rdi
	call	_gfortran_transfer_character_write@PLT
	leaq	-560(%rbp), %rax
	movq	%rax, %rdi
	call	_gfortran_st_write_done@PLT
	jmp	.L766
.L765:
	movq	-568(%rbp), %rax
	movl	(%rax), %edx
	movl	2640+fm_(%rip), %eax
	cmpl	%eax, %edx
	sete	%al
	movzbl	%al, %edx
	movq	-584(%rbp), %rax
	movl	(%rax), %ecx
	movl	2640+fm_(%rip), %eax
	cmpl	%eax, %ecx
	sete	%al
	movzbl	%al, %eax
	orl	%edx, %eax
	testl	%eax, %eax
	je	.L767
	movl	$-4, 32+fmuser_(%rip)
	movl	$0, -32(%rbp)
	jmp	.L766
.L767:
	movq	-568(%rbp), %rax
	movl	(%rax), %eax
	cltd
	xorl	%edx, %eax
	subl	%edx, %eax
	movl	2636+fm_(%rip), %edx
	cmpl	%edx, %eax
	sete	%al
	movzbl	%al, %edx
	movq	-568(%rbp), %rax
	movl	(%rax), %ecx
	movq	-584(%rbp), %rax
	movl	(%rax), %eax
	cmpl	%eax, %ecx
	sete	%al
	movzbl	%al, %eax
	movl	%edx, %ecx
	andl	%eax, %ecx
	movq	-568(%rbp), %rax
	movl	4(%rax), %edx
	movq	-584(%rbp), %rax
	movl	4(%rax), %eax
	cmpl	%eax, %edx
	sete	%al
	movzbl	%al, %eax
	andl	%ecx, %eax
	testl	%eax, %eax
	je	.L768
	movl	$-4, 32+fmuser_(%rip)
	movl	$0, -32(%rbp)
	movl	36+fmuser_(%rip), %eax
	testl	%eax, %eax
	jle	.L766
	leaq	.LC1(%rip), %rax
	movq	%rax, -552(%rbp)
	movl	$2014, -544(%rbp)
	leaq	.LC59(%rip), %rax
	movq	%rax, -480(%rbp)
	movq	$230, -472(%rbp)
	movl	$4096, -560(%rbp)
	movl	20+fmuser_(%rip), %eax
	movl	%eax, -556(%rbp)
	leaq	-560(%rbp), %rax
	movq	%rax, %rdi
	call	_gfortran_st_write@PLT
	leaq	-560(%rbp), %rax
	movq	%rax, %rdi
	call	_gfortran_st_write_done@PLT
	jmp	.L766
.L768:
	movl	$0, 32+fmuser_(%rip)
	movq	-568(%rbp), %rax
	movl	4(%rax), %eax
	testl	%eax, %eax
	jne	.L769
	movl	$2, -24(%rbp)
	movq	-584(%rbp), %rax
	movl	4(%rax), %eax
	testl	%eax, %eax
	jns	.L770
	movl	$1, -24(%rbp)
.L770:
	movq	-584(%rbp), %rax
	movl	4(%rax), %eax
	testl	%eax, %eax
	jle	.L792
	movl	$3, -24(%rbp)
	jmp	.L792
.L769:
	movq	-584(%rbp), %rax
	movl	4(%rax), %eax
	testl	%eax, %eax
	jne	.L773
	movl	$1, -24(%rbp)
	movq	-568(%rbp), %rax
	movl	4(%rax), %eax
	testl	%eax, %eax
	jns	.L793
	movl	$3, -24(%rbp)
	jmp	.L793
.L773:
	movq	-568(%rbp), %rax
	movl	4(%rax), %eax
	testl	%eax, %eax
	setg	%al
	movzbl	%al, %edx
	movq	-584(%rbp), %rax
	movl	4(%rax), %eax
	shrl	$31, %eax
	andl	%edx, %eax
	testl	%eax, %eax
	je	.L775
	movl	$1, -24(%rbp)
	jmp	.L772
.L775:
	movq	-584(%rbp), %rax
	movl	4(%rax), %eax
	testl	%eax, %eax
	setg	%al
	movzbl	%al, %edx
	movq	-568(%rbp), %rax
	movl	4(%rax), %eax
	shrl	$31, %eax
	andl	%edx, %eax
	testl	%eax, %eax
	je	.L776
	movl	$3, -24(%rbp)
	jmp	.L772
.L776:
	movq	-568(%rbp), %rax
	movl	(%rax), %edx
	movq	-584(%rbp), %rax
	movl	(%rax), %eax
	cmpl	%eax, %edx
	jle	.L777
	movl	$1, -24(%rbp)
	jmp	.L772
.L777:
	movq	-584(%rbp), %rax
	movl	(%rax), %edx
	movq	-568(%rbp), %rax
	movl	(%rax), %eax
	cmpl	%eax, %edx
	jle	.L778
	movl	$3, -24(%rbp)
	jmp	.L772
.L778:
	movl	fmuser_(%rip), %eax
	addl	$1, %eax
	movl	%eax, -28(%rbp)
	movl	-28(%rbp), %esi
	movl	$2, -20(%rbp)
.L782:
	cmpl	%esi, -20(%rbp)
	setg	%al
	movzbl	%al, %eax
	testl	%eax, %eax
	jne	.L794
	movl	-20(%rbp), %eax
	cltq
	leaq	-1(%rax), %rdx
	movq	-568(%rbp), %rax
	movl	(%rax,%rdx,4), %eax
	movl	%eax, %ecx
	sarl	$31, %ecx
	xorl	%ecx, %eax
	movl	%eax, %edx
	subl	%ecx, %edx
	movl	-20(%rbp), %eax
	cltq
	leaq	-1(%rax), %rcx
	movq	-584(%rbp), %rax
	movl	(%rax,%rcx,4), %eax
	movl	%eax, %ecx
	sarl	$31, %ecx
	xorl	%ecx, %eax
	subl	%ecx, %eax
	cmpl	%eax, %edx
	jle	.L780
	movl	$1, -24(%rbp)
	jmp	.L772
.L780:
	movl	-20(%rbp), %eax
	cltq
	leaq	-1(%rax), %rdx
	movq	-584(%rbp), %rax
	movl	(%rax,%rdx,4), %eax
	movl	%eax, %ecx
	sarl	$31, %ecx
	xorl	%ecx, %eax
	movl	%eax, %edx
	subl	%ecx, %edx
	movl	-20(%rbp), %eax
	cltq
	leaq	-1(%rax), %rcx
	movq	-568(%rbp), %rax
	movl	(%rax,%rcx,4), %eax
	movl	%eax, %ecx
	sarl	$31, %ecx
	xorl	%ecx, %eax
	subl	%ecx, %eax
	cmpl	%eax, %edx
	jle	.L781
	movl	$3, -24(%rbp)
	jmp	.L772
.L781:
	addl	$1, -20(%rbp)
	jmp	.L782
.L794:
	nop
	movl	$2, -24(%rbp)
	jmp	.L772
.L792:
	nop
	jmp	.L772
.L793:
	nop
.L772:
	cmpl	$1, -24(%rbp)
	sete	%al
	movzbl	%al, %edx
	movq	-568(%rbp), %rax
	movl	4(%rax), %eax
	shrl	$31, %eax
	andl	%edx, %eax
	testl	%eax, %eax
	je	.L783
	movl	$3, -24(%rbp)
	jmp	.L784
.L783:
	cmpl	$3, -24(%rbp)
	sete	%al
	movzbl	%al, %edx
	movq	-584(%rbp), %rax
	movl	4(%rax), %eax
	shrl	$31, %eax
	andl	%edx, %eax
	testl	%eax, %eax
	je	.L784
	movl	$1, -24(%rbp)
.L784:
	movl	$0, -32(%rbp)
	cmpl	$1, -24(%rbp)
	sete	%al
	movzbl	%al, %ebx
	movq	-576(%rbp), %rax
	movl	$2, %edx
	leaq	.LC33(%rip), %rsi
	movq	%rax, %rdi
	call	memcmp@PLT
	testl	%eax, %eax
	sete	%al
	movzbl	%al, %r12d
	movq	-576(%rbp), %rax
	movl	$2, %edx
	leaq	.LC32(%rip), %rsi
	movq	%rax, %rdi
	call	memcmp@PLT
	testl	%eax, %eax
	sete	%al
	movzbl	%al, %eax
	orl	%eax, %r12d
	movq	-576(%rbp), %rax
	movl	$2, %edx
	leaq	.LC56(%rip), %rsi
	movq	%rax, %rdi
	call	memcmp@PLT
	testl	%eax, %eax
	sete	%al
	movzbl	%al, %eax
	orl	%r12d, %eax
	andl	%ebx, %eax
	testl	%eax, %eax
	je	.L785
	movl	$1, -32(%rbp)
.L785:
	cmpl	$2, -24(%rbp)
	sete	%al
	movzbl	%al, %ebx
	movq	-576(%rbp), %rax
	movl	$2, %edx
	leaq	.LC55(%rip), %rsi
	movq	%rax, %rdi
	call	memcmp@PLT
	testl	%eax, %eax
	sete	%al
	movzbl	%al, %r12d
	movq	-576(%rbp), %rax
	movl	$2, %edx
	leaq	.LC32(%rip), %rsi
	movq	%rax, %rdi
	call	memcmp@PLT
	testl	%eax, %eax
	sete	%al
	movzbl	%al, %eax
	orl	%eax, %r12d
	movq	-576(%rbp), %rax
	movl	$2, %edx
	leaq	.LC57(%rip), %rsi
	movq	%rax, %rdi
	call	memcmp@PLT
	testl	%eax, %eax
	sete	%al
	movzbl	%al, %eax
	orl	%r12d, %eax
	andl	%ebx, %eax
	testl	%eax, %eax
	je	.L786
	movl	$1, -32(%rbp)
.L786:
	cmpl	$3, -24(%rbp)
	sete	%al
	movzbl	%al, %ebx
	movq	-576(%rbp), %rax
	movl	$2, %edx
	leaq	.LC56(%rip), %rsi
	movq	%rax, %rdi
	call	memcmp@PLT
	testl	%eax, %eax
	sete	%al
	movzbl	%al, %r12d
	movq	-576(%rbp), %rax
	movl	$2, %edx
	leaq	.LC34(%rip), %rsi
	movq	%rax, %rdi
	call	memcmp@PLT
	testl	%eax, %eax
	sete	%al
	movzbl	%al, %eax
	orl	%eax, %r12d
	movq	-576(%rbp), %rax
	movl	$2, %edx
	leaq	.LC57(%rip), %rsi
	movq	%rax, %rdi
	call	memcmp@PLT
	testl	%eax, %eax
	sete	%al
	movzbl	%al, %eax
	orl	%r12d, %eax
	andl	%ebx, %eax
	testl	%eax, %eax
	je	.L766
	movl	$1, -32(%rbp)
.L766:
	movl	24+fmuser_(%rip), %eax
	testl	%eax, %eax
	je	.L787
	movl	2616+fm_(%rip), %edx
	movl	28+fmuser_(%rip), %eax
	cmpl	%eax, %edx
	setle	%al
	movzbl	%al, %ecx
	movl	24+fmuser_(%rip), %eax
	cltd
	xorl	%edx, %eax
	subl	%edx, %eax
	testl	%eax, %eax
	setg	%al
	movzbl	%al, %eax
	andl	%ecx, %eax
	testl	%eax, %eax
	je	.L787
	movl	32+fmuser_(%rip), %eax
	testl	%eax, %eax
	jne	.L788
	leaq	.LC1(%rip), %rax
	movq	%rax, -552(%rbp)
	movl	$2093, -544(%rbp)
	leaq	.LC60(%rip), %rax
	movq	%rax, -480(%rbp)
	movq	$86, -472(%rbp)
	movl	$4096, -560(%rbp)
	movl	20+fmuser_(%rip), %eax
	movl	%eax, -556(%rbp)
	leaq	-560(%rbp), %rax
	movq	%rax, %rdi
	call	_gfortran_st_write@PLT
	leaq	-560(%rbp), %rax
	movl	$4, %edx
	leaq	2616+fm_(%rip), %rsi
	movq	%rax, %rdi
	call	_gfortran_transfer_integer_write@PLT
	leaq	-560(%rbp), %rax
	movl	$4, %edx
	leaq	4+fmuser_(%rip), %rsi
	movq	%rax, %rdi
	call	_gfortran_transfer_integer_write@PLT
	leaq	-560(%rbp), %rax
	movl	$4, %edx
	leaq	fmuser_(%rip), %rsi
	movq	%rax, %rdi
	call	_gfortran_transfer_integer_write@PLT
	leaq	-560(%rbp), %rax
	movq	%rax, %rdi
	call	_gfortran_st_write_done@PLT
	jmp	.L789
.L788:
	leaq	.LC1(%rip), %rax
	movq	%rax, -552(%rbp)
	movl	$2097, -544(%rbp)
	leaq	.LC61(%rip), %rax
	movq	%rax, -480(%rbp)
	movq	$102, -472(%rbp)
	movl	$4096, -560(%rbp)
	movl	20+fmuser_(%rip), %eax
	movl	%eax, -556(%rbp)
	leaq	-560(%rbp), %rax
	movq	%rax, %rdi
	call	_gfortran_st_write@PLT
	leaq	-560(%rbp), %rax
	movl	$4, %edx
	leaq	2616+fm_(%rip), %rsi
	movq	%rax, %rdi
	call	_gfortran_transfer_integer_write@PLT
	leaq	-560(%rbp), %rax
	movl	$4, %edx
	leaq	4+fmuser_(%rip), %rsi
	movq	%rax, %rdi
	call	_gfortran_transfer_integer_write@PLT
	leaq	-560(%rbp), %rax
	movl	$4, %edx
	leaq	fmuser_(%rip), %rsi
	movq	%rax, %rdi
	call	_gfortran_transfer_integer_write@PLT
	leaq	-560(%rbp), %rax
	movl	$4, %edx
	leaq	32+fmuser_(%rip), %rsi
	movq	%rax, %rdi
	call	_gfortran_transfer_integer_write@PLT
	leaq	-560(%rbp), %rax
	movq	%rax, %rdi
	call	_gfortran_st_write_done@PLT
.L789:
	movl	-32(%rbp), %eax
	testl	%eax, %eax
	je	.L790
	leaq	.LC1(%rip), %rax
	movq	%rax, -552(%rbp)
	movl	$2102, -544(%rbp)
	leaq	.LC62(%rip), %rax
	movq	%rax, -480(%rbp)
	movq	$13, -472(%rbp)
	movl	$4096, -560(%rbp)
	movl	20+fmuser_(%rip), %eax
	movl	%eax, -556(%rbp)
	leaq	-560(%rbp), %rax
	movq	%rax, %rdi
	call	_gfortran_st_write@PLT
	leaq	-560(%rbp), %rax
	movq	%rax, %rdi
	call	_gfortran_st_write_done@PLT
	jmp	.L787
.L790:
	leaq	.LC1(%rip), %rax
	movq	%rax, -552(%rbp)
	movl	$2105, -544(%rbp)
	leaq	.LC63(%rip), %rax
	movq	%rax, -480(%rbp)
	movq	$14, -472(%rbp)
	movl	$4096, -560(%rbp)
	movl	20+fmuser_(%rip), %eax
	movl	%eax, -556(%rbp)
	leaq	-560(%rbp), %rax
	movq	%rax, %rdi
	call	_gfortran_st_write@PLT
	leaq	-560(%rbp), %rax
	movq	%rax, %rdi
	call	_gfortran_st_write_done@PLT
.L787:
	movl	2616+fm_(%rip), %eax
	subl	$1, %eax
	movl	%eax, 2616+fm_(%rip)
	movl	-32(%rbp), %eax
	addq	$576, %rsp
	popq	%rbx
	popq	%r12
	popq	%rbp
	.cfi_def_cfa 7, 8
	ret
	.cfi_endproc
.LFE44:
	.size	fmcomp_, .-fmcomp_
	.globl	fmbig_
	.type	fmbig_, @function
fmbig_:
.LFB45:
	.cfi_startproc
	pushq	%rbp
	.cfi_def_cfa_offset 16
	.cfi_offset 6, -16
	movq	%rsp, %rbp
	.cfi_def_cfa_register 6
	subq	$32, %rsp
	movq	%rdi, -24(%rbp)
	movl	2616+fm_(%rip), %eax
	addl	$1, %eax
	movl	%eax, 2616+fm_(%rip)
	movl	2616+fm_(%rip), %eax
	cltq
	subq	$1, %rax
	addq	$665, %rax
	leaq	0(,%rax,4), %rdx
	leaq	fm_(%rip), %rax
	movl	$7, (%rdx,%rax)
	movl	$0, 32+fmuser_(%rip)
	movl	fmuser_(%rip), %eax
	addl	$1, %eax
	movl	%eax, -8(%rbp)
	movl	-8(%rbp), %edx
	movl	$2, -4(%rbp)
.L797:
	cmpl	%edx, -4(%rbp)
	setg	%al
	movzbl	%al, %eax
	testl	%eax, %eax
	jne	.L800
	movl	4+fmuser_(%rip), %eax
	movl	-4(%rbp), %ecx
	movslq	%ecx, %rcx
	subq	$1, %rcx
	leal	-1(%rax), %esi
	movq	-24(%rbp), %rax
	movl	%esi, (%rax,%rcx,4)
	addl	$1, -4(%rbp)
	jmp	.L797
.L800:
	nop
	movl	2620+fm_(%rip), %eax
	leal	1(%rax), %edx
	movq	-24(%rbp), %rax
	movl	%edx, (%rax)
	movl	24+fmuser_(%rip), %eax
	testl	%eax, %eax
	je	.L798
	movq	-24(%rbp), %rdx
	movq	-24(%rbp), %rax
	leaq	.LC6(%rip), %rcx
	movq	%rax, %rsi
	leaq	.LC6(%rip), %rdi
	call	fmntr_
.L798:
	movl	2616+fm_(%rip), %eax
	subl	$1, %eax
	movl	%eax, 2616+fm_(%rip)
	nop
	leave
	.cfi_def_cfa 7, 8
	ret
	.cfi_endproc
.LFE45:
	.size	fmbig_, .-fmbig_
	.section	.rodata
	.align 4
.LC64:
	.long	6
	.align 4
.LC65:
	.long	90
	.align 4
.LC66:
	.long	-90
	.align 4
.LC67:
	.long	-2
	.text
	.globl	fmatn2_
	.type	fmatn2_, @function
fmatn2_:
.LFB46:
	.cfi_startproc
	pushq	%rbp
	.cfi_def_cfa_offset 16
	.cfi_offset 6, -16
	movq	%rsp, %rbp
	.cfi_def_cfa_register 6
	subq	$64, %rsp
	movq	%rdi, -40(%rbp)
	movq	%rsi, -48(%rbp)
	movq	%rdx, -56(%rbp)
	leaq	-20(%rbp), %rdi
	movq	-56(%rbp), %rsi
	movq	-48(%rbp), %rdx
	movq	-40(%rbp), %rax
	leaq	-16(%rbp), %rcx
	pushq	%rcx
	leaq	-12(%rbp), %rcx
	pushq	%rcx
	leaq	-24(%rbp), %rcx
	pushq	%rcx
	leaq	-28(%rbp), %rcx
	pushq	%rcx
	movq	%rdi, %r9
	movq	%rsi, %r8
	leaq	.LC11(%rip), %rcx
	movq	%rax, %rsi
	leaq	.LC64(%rip), %rdi
	call	fmentr_
	addq	$32, %rsp
	movl	-20(%rbp), %eax
	testl	%eax, %eax
	jne	.L801
	movl	$0, 2628+fm_(%rip)
	movl	36+fmuser_(%rip), %eax
	movl	%eax, -8(%rbp)
	movl	$0, 36+fmuser_(%rip)
	leaq	-28(%rbp), %rdx
	movq	-40(%rbp), %rax
	leaq	fmuser_(%rip), %rcx
	leaq	fm1_(%rip), %rsi
	movq	%rax, %rdi
	call	fmequ_
	leaq	-28(%rbp), %rdx
	movq	-48(%rbp), %rax
	leaq	fmuser_(%rip), %rcx
	leaq	1308+fm1_(%rip), %rsi
	movq	%rax, %rdi
	call	fmequ_
	movq	-40(%rbp), %rax
	movl	(%rax), %edx
	movl	2640+fm_(%rip), %eax
	cmpl	%eax, %edx
	sete	%al
	movzbl	%al, %edx
	movq	-48(%rbp), %rax
	movl	(%rax), %ecx
	movl	2640+fm_(%rip), %eax
	cmpl	%eax, %ecx
	sete	%al
	movzbl	%al, %eax
	movl	%edx, %ecx
	orl	%eax, %ecx
	movq	-40(%rbp), %rax
	movl	4(%rax), %eax
	testl	%eax, %eax
	sete	%al
	movzbl	%al, %edx
	movq	-48(%rbp), %rax
	movl	4(%rax), %eax
	testl	%eax, %eax
	sete	%al
	movzbl	%al, %eax
	andl	%edx, %eax
	orl	%ecx, %eax
	testl	%eax, %eax
	je	.L804
	movq	-56(%rbp), %rax
	movq	%rax, %rsi
	leaq	.LC5(%rip), %rdi
	call	fmim_
	movl	2640+fm_(%rip), %edx
	movq	-56(%rbp), %rax
	movl	%edx, (%rax)
	movq	-56(%rbp), %rax
	movl	$1, 4(%rax)
	movl	$-4, 32+fmuser_(%rip)
	jmp	.L805
.L804:
	movq	-48(%rbp), %rax
	movl	4(%rax), %eax
	testl	%eax, %eax
	sete	%al
	movzbl	%al, %edx
	movq	-40(%rbp), %rax
	movl	4(%rax), %eax
	testl	%eax, %eax
	setg	%al
	movzbl	%al, %eax
	andl	%edx, %eax
	testl	%eax, %eax
	je	.L806
	movl	16+fmuser_(%rip), %eax
	testl	%eax, %eax
	jne	.L807
	movq	-56(%rbp), %rax
	movq	%rax, %rsi
	leaq	.LC65(%rip), %rdi
	call	fmi2m_
	jmp	.L805
.L807:
	movq	-56(%rbp), %rax
	movq	%rax, %rdi
	call	fmpi_
	movq	-56(%rbp), %rdx
	movq	-56(%rbp), %rax
	leaq	.LC11(%rip), %rsi
	movq	%rax, %rdi
	call	fmdivi_
	jmp	.L805
.L806:
	movq	-48(%rbp), %rax
	movl	4(%rax), %eax
	testl	%eax, %eax
	sete	%al
	movzbl	%al, %edx
	movq	-40(%rbp), %rax
	movl	4(%rax), %eax
	shrl	$31, %eax
	andl	%edx, %eax
	testl	%eax, %eax
	je	.L809
	movl	16+fmuser_(%rip), %eax
	testl	%eax, %eax
	jne	.L810
	movq	-56(%rbp), %rax
	movq	%rax, %rsi
	leaq	.LC66(%rip), %rdi
	call	fmi2m_
	jmp	.L805
.L810:
	movq	-56(%rbp), %rax
	movq	%rax, %rdi
	call	fmpi_
	movq	-56(%rbp), %rdx
	movq	-56(%rbp), %rax
	leaq	.LC67(%rip), %rsi
	movq	%rax, %rdi
	call	fmdivi_
	jmp	.L805
.L809:
	movq	-40(%rbp), %rax
	movl	(%rax), %edx
	movl	2636+fm_(%rip), %eax
	cmpl	%eax, %edx
	sete	%al
	movzbl	%al, %edx
	movq	-48(%rbp), %rax
	movl	(%rax), %eax
	movl	-24(%rbp), %esi
	movl	fmuser_(%rip), %ecx
	subl	%ecx, %esi
	movl	%esi, %ecx
	subl	$2, %ecx
	cmpl	%ecx, %eax
	setl	%al
	movzbl	%al, %eax
	andl	%edx, %eax
	testl	%eax, %eax
	je	.L812
	movl	16+fmuser_(%rip), %eax
	testl	%eax, %eax
	jne	.L813
	movq	-56(%rbp), %rax
	movq	%rax, %rsi
	leaq	.LC65(%rip), %rdi
	call	fmi2m_
	jmp	.L814
.L813:
	movq	-56(%rbp), %rax
	movq	%rax, %rdi
	call	fmpi_
	movq	-56(%rbp), %rdx
	movq	-56(%rbp), %rax
	leaq	.LC11(%rip), %rsi
	movq	%rax, %rdi
	call	fmdivi_
.L814:
	movl	4+fm1_(%rip), %eax
	testl	%eax, %eax
	jns	.L840
	movq	-56(%rbp), %rax
	movl	4(%rax), %eax
	negl	%eax
	movl	%eax, %edx
	movq	-56(%rbp), %rax
	movl	%edx, 4(%rax)
	jmp	.L840
.L812:
	movq	-40(%rbp), %rax
	movl	(%rax), %edx
	movl	2632+fm_(%rip), %eax
	cmpl	%eax, %edx
	sete	%al
	movzbl	%al, %edx
	movq	-48(%rbp), %rax
	movl	(%rax), %eax
	negl	%eax
	movl	%eax, %esi
	movl	-24(%rbp), %ecx
	movl	fmuser_(%rip), %eax
	subl	%eax, %ecx
	movl	%ecx, %eax
	subl	$2, %eax
	cmpl	%eax, %esi
	setl	%al
	movzbl	%al, %eax
	andl	%eax, %edx
	movq	-48(%rbp), %rax
	movl	4(%rax), %eax
	shrl	$31, %eax
	andl	%edx, %eax
	testl	%eax, %eax
	je	.L816
	movl	16+fmuser_(%rip), %eax
	testl	%eax, %eax
	jne	.L817
	movq	-56(%rbp), %rax
	movq	%rax, %rsi
	leaq	.LC17(%rip), %rdi
	call	fmi2m_
	jmp	.L818
.L817:
	movq	-56(%rbp), %rax
	movq	%rax, %rdi
	call	fmpi_
.L818:
	movl	4+fm1_(%rip), %eax
	testl	%eax, %eax
	jns	.L841
	movq	-56(%rbp), %rax
	movl	4(%rax), %eax
	negl	%eax
	movl	%eax, %edx
	movq	-56(%rbp), %rax
	movl	%edx, 4(%rax)
	jmp	.L841
.L816:
	movq	-48(%rbp), %rax
	movl	(%rax), %edx
	movl	2636+fm_(%rip), %eax
	cmpl	%eax, %edx
	sete	%al
	movzbl	%al, %edx
	movq	-40(%rbp), %rax
	movl	(%rax), %eax
	movl	-24(%rbp), %esi
	movl	fmuser_(%rip), %ecx
	subl	%ecx, %esi
	movl	%esi, %ecx
	subl	$2, %ecx
	cmpl	%ecx, %eax
	setl	%al
	movzbl	%al, %eax
	andl	%eax, %edx
	movq	-48(%rbp), %rax
	movl	4(%rax), %eax
	shrl	$31, %eax
	andl	%edx, %eax
	testl	%eax, %eax
	je	.L820
	movl	16+fmuser_(%rip), %eax
	testl	%eax, %eax
	jne	.L821
	movq	-56(%rbp), %rax
	movq	%rax, %rsi
	leaq	.LC17(%rip), %rdi
	call	fmi2m_
	jmp	.L822
.L821:
	movq	-56(%rbp), %rax
	movq	%rax, %rdi
	call	fmpi_
.L822:
	movl	4+fm1_(%rip), %eax
	testl	%eax, %eax
	jns	.L842
	movq	-56(%rbp), %rax
	movl	4(%rax), %eax
	negl	%eax
	movl	%eax, %edx
	movq	-56(%rbp), %rax
	movl	%edx, 4(%rax)
	jmp	.L842
.L820:
	movq	-48(%rbp), %rax
	movl	(%rax), %edx
	movl	2632+fm_(%rip), %eax
	cmpl	%eax, %edx
	sete	%al
	movzbl	%al, %edx
	movq	-40(%rbp), %rax
	movl	4(%rax), %eax
	testl	%eax, %eax
	sete	%al
	movzbl	%al, %eax
	andl	%edx, %eax
	testl	%eax, %eax
	je	.L824
	movq	-48(%rbp), %rax
	movl	4(%rax), %eax
	testl	%eax, %eax
	jns	.L825
	movl	16+fmuser_(%rip), %eax
	testl	%eax, %eax
	jne	.L826
	movq	-56(%rbp), %rax
	movq	%rax, %rsi
	leaq	.LC17(%rip), %rdi
	call	fmi2m_
	jmp	.L805
.L826:
	movq	-56(%rbp), %rax
	movq	%rax, %rdi
	call	fmpi_
	jmp	.L805
.L825:
	movq	-56(%rbp), %rax
	movq	%rax, %rsi
	leaq	.LC5(%rip), %rdi
	call	fmi2m_
	jmp	.L805
.L824:
	movq	-48(%rbp), %rax
	movl	(%rax), %edx
	movl	2632+fm_(%rip), %eax
	cmpl	%eax, %edx
	sete	%al
	movzbl	%al, %edx
	movq	-40(%rbp), %rax
	movl	(%rax), %eax
	negl	%eax
	movl	%eax, %esi
	movl	-24(%rbp), %ecx
	movl	fmuser_(%rip), %eax
	subl	%eax, %ecx
	movl	%ecx, %eax
	subl	$2, %eax
	cmpl	%eax, %esi
	setl	%al
	movzbl	%al, %eax
	andl	%edx, %eax
	testl	%eax, %eax
	je	.L828
	movl	16+fmuser_(%rip), %eax
	testl	%eax, %eax
	jne	.L829
	movq	-56(%rbp), %rax
	movq	%rax, %rsi
	leaq	.LC65(%rip), %rdi
	call	fmi2m_
	jmp	.L830
.L829:
	movq	-56(%rbp), %rax
	movq	%rax, %rdi
	call	fmpi_
	movq	-56(%rbp), %rdx
	movq	-56(%rbp), %rax
	leaq	.LC11(%rip), %rsi
	movq	%rax, %rdi
	call	fmdivi_
.L830:
	movl	4+fm1_(%rip), %eax
	testl	%eax, %eax
	jns	.L843
	movq	-56(%rbp), %rax
	movl	4(%rax), %eax
	negl	%eax
	movl	%eax, %edx
	movq	-56(%rbp), %rax
	movl	%edx, 4(%rax)
	jmp	.L843
.L828:
	movq	-40(%rbp), %rax
	movl	4(%rax), %eax
	notl	%eax
	shrl	$31, %eax
	movl	%eax, %edx
	movq	-48(%rbp), %rax
	movl	4(%rax), %eax
	testl	%eax, %eax
	setg	%al
	movzbl	%al, %eax
	andl	%edx, %eax
	testl	%eax, %eax
	je	.L832
	movl	$1, -4(%rbp)
.L832:
	movq	-40(%rbp), %rax
	movl	4(%rax), %eax
	notl	%eax
	shrl	$31, %eax
	movl	%eax, %edx
	movq	-48(%rbp), %rax
	movl	4(%rax), %eax
	shrl	$31, %eax
	andl	%edx, %eax
	testl	%eax, %eax
	je	.L833
	movl	$2, -4(%rbp)
.L833:
	movq	-40(%rbp), %rax
	movl	4(%rax), %eax
	shrl	$31, %eax
	movl	%eax, %edx
	movq	-48(%rbp), %rax
	movl	4(%rax), %eax
	shrl	$31, %eax
	andl	%edx, %eax
	testl	%eax, %eax
	je	.L834
	movl	$3, -4(%rbp)
.L834:
	movq	-40(%rbp), %rax
	movl	4(%rax), %eax
	shrl	$31, %eax
	movl	%eax, %edx
	movq	-48(%rbp), %rax
	movl	4(%rax), %eax
	testl	%eax, %eax
	setg	%al
	movzbl	%al, %eax
	andl	%edx, %eax
	testl	%eax, %eax
	je	.L835
	movl	$4, -4(%rbp)
.L835:
	movq	-56(%rbp), %rax
	movq	%rax, %rdx
	leaq	1308+fm1_(%rip), %rsi
	leaq	fm1_(%rip), %rdi
	call	fmdiv_
	movq	-56(%rbp), %rax
	movl	4(%rax), %eax
	cltd
	xorl	%edx, %eax
	subl	%edx, %eax
	movq	-56(%rbp), %rdx
	movl	%eax, 4(%rdx)
	movq	-56(%rbp), %rdx
	movq	-56(%rbp), %rax
	movq	%rdx, %rsi
	movq	%rax, %rdi
	call	fmatan_
	cmpl	$2, -4(%rbp)
	sete	%al
	movzbl	%al, %edx
	cmpl	$3, -4(%rbp)
	sete	%al
	movzbl	%al, %eax
	orl	%edx, %eax
	testl	%eax, %eax
	je	.L836
	movl	16+fmuser_(%rip), %eax
	testl	%eax, %eax
	jne	.L837
	leaq	5232+fm1_(%rip), %rsi
	leaq	.LC17(%rip), %rdi
	call	fmi2m_
	movq	-56(%rbp), %rdx
	movq	-56(%rbp), %rax
	movq	%rax, %rsi
	leaq	5232+fm1_(%rip), %rdi
	call	fmsub_
	jmp	.L836
.L837:
	leaq	5232+fm1_(%rip), %rdi
	call	fmpi_
	movq	-56(%rbp), %rdx
	movq	-56(%rbp), %rax
	movq	%rax, %rsi
	leaq	5232+fm1_(%rip), %rdi
	call	fmsub_
.L836:
	cmpl	$3, -4(%rbp)
	sete	%al
	movzbl	%al, %edx
	cmpl	$4, -4(%rbp)
	sete	%al
	movzbl	%al, %eax
	movl	%edx, %ecx
	orl	%eax, %ecx
	movq	-56(%rbp), %rax
	movl	(%rax), %edx
	movl	2640+fm_(%rip), %eax
	cmpl	%eax, %edx
	setne	%al
	movzbl	%al, %eax
	andl	%ecx, %eax
	testl	%eax, %eax
	je	.L805
	movq	-56(%rbp), %rax
	movl	4(%rax), %eax
	negl	%eax
	movl	%eax, %edx
	movq	-56(%rbp), %rax
	movl	%edx, 4(%rax)
	jmp	.L805
.L840:
	nop
	jmp	.L805
.L841:
	nop
	jmp	.L805
.L842:
	nop
	jmp	.L805
.L843:
	nop
.L805:
	movl	32+fmuser_(%rip), %eax
	cmpl	$1, %eax
	jne	.L838
	movl	$0, 32+fmuser_(%rip)
.L838:
	movl	-8(%rbp), %eax
	movl	%eax, 36+fmuser_(%rip)
	leaq	-16(%rbp), %r8
	leaq	-12(%rbp), %rdi
	leaq	-24(%rbp), %rcx
	leaq	-28(%rbp), %rdx
	movq	-56(%rbp), %rsi
	movq	-56(%rbp), %rax
	movq	%r8, %r9
	movq	%rdi, %r8
	movq	%rax, %rdi
	call	fmexit_
	nop
.L801:
	leave
	.cfi_def_cfa 7, 8
	ret
	.cfi_endproc
.LFE46:
	.size	fmatn2_, .-fmatn2_
	.section	.rodata
	.align 4
.LC68:
	.long	5
	.text
	.globl	fmatan_
	.type	fmatan_, @function
fmatan_:
.LFB47:
	.cfi_startproc
	pushq	%rbp
	.cfi_def_cfa_offset 16
	.cfi_offset 6, -16
	movq	%rsp, %rbp
	.cfi_def_cfa_register 6
	pushq	%rbx
	subq	$200, %rsp
	.cfi_offset 3, -24
	movq	%rdi, -184(%rbp)
	movq	%rsi, -192(%rbp)
	leaq	-72(%rbp), %rdi
	movq	-192(%rbp), %rsi
	movq	-184(%rbp), %rdx
	movq	-184(%rbp), %rax
	leaq	-68(%rbp), %rcx
	pushq	%rcx
	leaq	-64(%rbp), %rcx
	pushq	%rcx
	leaq	-80(%rbp), %rcx
	pushq	%rcx
	leaq	-84(%rbp), %rcx
	pushq	%rcx
	movq	%rdi, %r9
	movq	%rsi, %r8
	leaq	.LC6(%rip), %rcx
	movq	%rax, %rsi
	leaq	.LC68(%rip), %rdi
	call	fmentr_
	addq	$32, %rsp
	movl	-72(%rbp), %eax
	testl	%eax, %eax
	jne	.L844
	leaq	-84(%rbp), %rdx
	movq	-184(%rbp), %rax
	leaq	fmuser_(%rip), %rcx
	leaq	5232+fm1_(%rip), %rsi
	movq	%rax, %rdi
	call	fmequ_
	movq	-184(%rbp), %rax
	movl	(%rax), %eax
	movl	%eax, -20(%rbp)
	movq	-184(%rbp), %rax
	movl	4(%rax), %eax
	movl	%eax, -24(%rbp)
	movl	5236+fm1_(%rip), %eax
	cltd
	xorl	%edx, %eax
	subl	%edx, %eax
	movl	%eax, 5236+fm1_(%rip)
	cmpl	$0, -20(%rbp)
	jle	.L847
	movq	-192(%rbp), %rax
	movq	%rax, %rsi
	leaq	.LC6(%rip), %rdi
	call	fmi2m_
	movq	-192(%rbp), %rax
	leaq	5232+fm1_(%rip), %rdx
	leaq	5232+fm1_(%rip), %rsi
	movq	%rax, %rdi
	call	fmdiv_
.L847:
	movl	16+fmuser_(%rip), %eax
	movl	%eax, -28(%rbp)
	movl	$1, 16+fmuser_(%rip)
	movl	36+fmuser_(%rip), %eax
	movl	%eax, -32(%rbp)
	movl	5232+fm1_(%rip), %eax
	cvtsi2sdl	%eax, %xmm0
	movsd	%xmm0, -168(%rbp)
	movl	4+fmuser_(%rip), %eax
	cvtsi2sdl	%eax, %xmm0
	movsd	%xmm0, -40(%rbp)
	movl	2652+fm_(%rip), %eax
	cvtsi2sdl	%eax, %xmm0
	movsd	%xmm0, -48(%rbp)
	cmpl	$0, -20(%rbp)
	setg	%al
	movzbl	%al, %edx
	cmpl	$0, -28(%rbp)
	sete	%al
	movzbl	%al, %eax
	orl	%edx, %eax
	testl	%eax, %eax
	je	.L848
	movl	4+fmsave_(%rip), %edx
	movl	4+fmuser_(%rip), %eax
	cmpl	%eax, %edx
	setne	%al
	movzbl	%al, %edx
	movl	fmsave_(%rip), %ecx
	movl	fmuser_(%rip), %eax
	cmpl	%eax, %ecx
	setl	%al
	movzbl	%al, %eax
	orl	%edx, %eax
	testl	%eax, %eax
	je	.L848
	movl	fmuser_(%rip), %eax
	movl	%eax, -52(%rbp)
	movl	fmuser_(%rip), %eax
	leal	2(%rax), %edx
	movl	2656+fm_(%rip), %eax
	cmpl	%eax, %edx
	cmovle	%edx, %eax
	movl	%eax, fmuser_(%rip)
	leaq	32+fmsave_(%rip), %rdi
	call	fmpi2_
	movl	4+fmuser_(%rip), %eax
	movl	%eax, 4+fmsave_(%rip)
	movl	fmuser_(%rip), %eax
	movl	%eax, fmsave_(%rip)
	movl	-52(%rbp), %eax
	movl	%eax, fmuser_(%rip)
.L848:
	movq	-40(%rbp), %rax
	movq	%rax, %xmm0
	call	log@PLT
	movsd	-168(%rbp), %xmm1
	mulsd	%xmm1, %xmm0
	movsd	%xmm0, -200(%rbp)
	movq	-48(%rbp), %rax
	movq	%rax, %xmm0
	call	log@PLT
	movsd	.LC69(%rip), %xmm1
	mulsd	%xmm1, %xmm0
	movq	.LC70(%rip), %xmm1
	xorpd	%xmm1, %xmm0
	comisd	-200(%rbp), %xmm0
	jbe	.L862
	movl	$0, 36+fmuser_(%rip)
	movq	-192(%rbp), %rax
	leaq	fmuser_(%rip), %rcx
	leaq	fmuser_(%rip), %rdx
	movq	%rax, %rsi
	leaq	5232+fm1_(%rip), %rdi
	call	fmequ_
	leaq	6540+fm1_(%rip), %rdx
	leaq	5232+fm1_(%rip), %rsi
	leaq	5232+fm1_(%rip), %rdi
	call	fmmpy_
	movl	$3, -60(%rbp)
	movl	fmuser_(%rip), %eax
	movl	%eax, -56(%rbp)
.L854:
	leaq	5232+fm1_(%rip), %rdx
	leaq	6540+fm1_(%rip), %rsi
	leaq	5232+fm1_(%rip), %rdi
	call	fmmpy_
	movl	5236+fm1_(%rip), %eax
	negl	%eax
	movl	%eax, 5236+fm1_(%rip)
	leaq	-60(%rbp), %rax
	leaq	2616+fm1_(%rip), %rdx
	movq	%rax, %rsi
	leaq	5232+fm1_(%rip), %rdi
	call	fmdivi_
	movl	-56(%rbp), %eax
	movl	%eax, fmuser_(%rip)
	movq	-192(%rbp), %rdx
	movq	-192(%rbp), %rax
	leaq	2616+fm1_(%rip), %rsi
	movq	%rax, %rdi
	call	fmadd_
	movl	32+fmuser_(%rip), %eax
	cmpl	$1, %eax
	jne	.L851
	movl	$0, 32+fmuser_(%rip)
	jmp	.L852
.L851:
	movq	-192(%rbp), %rax
	movl	(%rax), %edx
	movl	2616+fm1_(%rip), %eax
	subl	%eax, %edx
	movl	-56(%rbp), %eax
	subl	%edx, %eax
	movl	%eax, fmuser_(%rip)
	movl	fmuser_(%rip), %eax
	cmpl	$1, %eax
	jg	.L853
	movl	$2, fmuser_(%rip)
.L853:
	movl	-60(%rbp), %eax
	addl	$2, %eax
	movl	%eax, -60(%rbp)
	jmp	.L854
.L862:
	leaq	-168(%rbp), %rax
	movq	%rax, %rsi
	leaq	5232+fm1_(%rip), %rdi
	call	fmm2dp_
	movq	-168(%rbp), %rax
	movq	%rax, %xmm0
	call	atan@PLT
	movq	%xmm0, %rax
	movq	%rax, -168(%rbp)
	movq	-192(%rbp), %rdx
	leaq	-168(%rbp), %rax
	movq	%rdx, %rsi
	movq	%rax, %rdi
	call	fmdp2m_
	leaq	-76(%rbp), %rdx
	leaq	-160(%rbp), %rax
	movq	%rdx, %rsi
	movq	%rax, %rdi
	call	fmdig_
	movl	-76(%rbp), %ebx
	movl	$1, -60(%rbp)
.L855:
	movl	-60(%rbp), %eax
	cmpl	%eax, %ebx
	setl	%al
	movzbl	%al, %eax
	testl	%eax, %eax
	jne	.L863
	movl	-60(%rbp), %eax
	cltq
	subq	$1, %rax
	movl	-160(%rbp,%rax,4), %eax
	movl	%eax, fmuser_(%rip)
	movq	-192(%rbp), %rax
	leaq	6540+fm1_(%rip), %rsi
	movq	%rax, %rdi
	call	fmsin_
	leaq	2616+fm1_(%rip), %rdx
	leaq	6540+fm1_(%rip), %rsi
	leaq	6540+fm1_(%rip), %rdi
	call	fmmpy_
	leaq	3924+fm1_(%rip), %rsi
	leaq	.LC6(%rip), %rdi
	call	fmi2m_
	leaq	2616+fm1_(%rip), %rdx
	leaq	2616+fm1_(%rip), %rsi
	leaq	3924+fm1_(%rip), %rdi
	call	fmsub_
	leaq	3924+fm1_(%rip), %rsi
	leaq	2616+fm1_(%rip), %rdi
	call	fmsqrt_
	leaq	3924+fm1_(%rip), %rdx
	leaq	3924+fm1_(%rip), %rsi
	leaq	6540+fm1_(%rip), %rdi
	call	fmdiv_
	leaq	3924+fm1_(%rip), %rdx
	leaq	5232+fm1_(%rip), %rsi
	leaq	3924+fm1_(%rip), %rdi
	call	fmsub_
	leaq	3924+fm1_(%rip), %rdx
	leaq	3924+fm1_(%rip), %rsi
	leaq	2616+fm1_(%rip), %rdi
	call	fmmpy_
	movq	-192(%rbp), %rdx
	movq	-192(%rbp), %rax
	leaq	3924+fm1_(%rip), %rsi
	movq	%rax, %rdi
	call	fmsub_
	movl	-60(%rbp), %eax
	addl	$1, %eax
	movl	%eax, -60(%rbp)
	jmp	.L855
.L863:
	nop
.L852:
	cmpl	$0, -20(%rbp)
	jle	.L856
	leaq	6540+fm1_(%rip), %rdx
	leaq	.LC11(%rip), %rsi
	leaq	32+fmsave_(%rip), %rdi
	call	fmdivi_
	movq	-192(%rbp), %rdx
	movq	-192(%rbp), %rax
	movq	%rax, %rsi
	leaq	6540+fm1_(%rip), %rdi
	call	fmsub_
.L856:
	movl	-28(%rbp), %eax
	movl	%eax, 16+fmuser_(%rip)
	movl	16+fmuser_(%rip), %eax
	testl	%eax, %eax
	jne	.L857
	movq	-192(%rbp), %rdx
	movq	-192(%rbp), %rax
	leaq	.LC17(%rip), %rsi
	movq	%rax, %rdi
	call	fmmpyi_
	movq	-192(%rbp), %rdx
	movq	-192(%rbp), %rax
	leaq	32+fmsave_(%rip), %rsi
	movq	%rax, %rdi
	call	fmdiv_
.L857:
	cmpl	$0, -24(%rbp)
	jns	.L858
	movq	-192(%rbp), %rax
	movl	4(%rax), %eax
	negl	%eax
	movl	%eax, %edx
	movq	-192(%rbp), %rax
	movl	%edx, 4(%rax)
.L858:
	movl	32+fmuser_(%rip), %eax
	cmpl	$1, %eax
	jne	.L859
	movl	$0, 32+fmuser_(%rip)
.L859:
	movl	-32(%rbp), %eax
	movl	%eax, 36+fmuser_(%rip)
	leaq	-68(%rbp), %r8
	leaq	-64(%rbp), %rdi
	leaq	-80(%rbp), %rcx
	leaq	-84(%rbp), %rdx
	movq	-192(%rbp), %rsi
	movq	-192(%rbp), %rax
	movq	%r8, %r9
	movq	%rdi, %r8
	movq	%rax, %rdi
	call	fmexit_
	nop
.L844:
	movq	-8(%rbp), %rbx
	leave
	.cfi_def_cfa 7, 8
	ret
	.cfi_endproc
.LFE47:
	.size	fmatan_, .-fmatan_
	.section	.rodata
	.align 4
.LC71:
	.long	4
	.text
	.globl	fmasin_
	.type	fmasin_, @function
fmasin_:
.LFB48:
	.cfi_startproc
	pushq	%rbp
	.cfi_def_cfa_offset 16
	.cfi_offset 6, -16
	movq	%rsp, %rbp
	.cfi_def_cfa_register 6
	subq	$48, %rsp
	movq	%rdi, -40(%rbp)
	movq	%rsi, -48(%rbp)
	leaq	-12(%rbp), %rdi
	movq	-48(%rbp), %rsi
	movq	-40(%rbp), %rdx
	movq	-40(%rbp), %rax
	leaq	-8(%rbp), %rcx
	pushq	%rcx
	leaq	-4(%rbp), %rcx
	pushq	%rcx
	leaq	-16(%rbp), %rcx
	pushq	%rcx
	leaq	-20(%rbp), %rcx
	pushq	%rcx
	movq	%rdi, %r9
	movq	%rsi, %r8
	leaq	.LC6(%rip), %rcx
	movq	%rax, %rsi
	leaq	.LC71(%rip), %rdi
	call	fmentr_
	addq	$32, %rsp
	movl	-12(%rbp), %eax
	testl	%eax, %eax
	jne	.L864
	leaq	-20(%rbp), %rdx
	movq	-48(%rbp), %rsi
	movq	-40(%rbp), %rax
	leaq	fmuser_(%rip), %rcx
	movq	%rax, %rdi
	call	fmequ_
	leaq	5232+fm1_(%rip), %rsi
	leaq	.LC6(%rip), %rdi
	call	fmi2m_
	movq	-48(%rbp), %rax
	leaq	2616+fm1_(%rip), %rdx
	movq	%rax, %rsi
	leaq	5232+fm1_(%rip), %rdi
	call	fmsub_
	movq	-48(%rbp), %rax
	leaq	3924+fm1_(%rip), %rdx
	movq	%rax, %rsi
	leaq	5232+fm1_(%rip), %rdi
	call	fmadd_
	leaq	3924+fm1_(%rip), %rdx
	leaq	3924+fm1_(%rip), %rsi
	leaq	2616+fm1_(%rip), %rdi
	call	fmmpy_
	leaq	3924+fm1_(%rip), %rsi
	leaq	3924+fm1_(%rip), %rdi
	call	fmsqrt_
	movq	-48(%rbp), %rdx
	movq	-48(%rbp), %rax
	leaq	3924+fm1_(%rip), %rsi
	movq	%rax, %rdi
	call	fmdiv_
	movq	-48(%rbp), %rdx
	movq	-48(%rbp), %rax
	movq	%rdx, %rsi
	movq	%rax, %rdi
	call	fmatan_
	leaq	-8(%rbp), %r8
	leaq	-4(%rbp), %rdi
	leaq	-16(%rbp), %rcx
	leaq	-20(%rbp), %rdx
	movq	-48(%rbp), %rsi
	movq	-48(%rbp), %rax
	movq	%r8, %r9
	movq	%rdi, %r8
	movq	%rax, %rdi
	call	fmexit_
	nop
.L864:
	leave
	.cfi_def_cfa 7, 8
	ret
	.cfi_endproc
.LFE48:
	.size	fmasin_, .-fmasin_
	.globl	fmacos_
	.type	fmacos_, @function
fmacos_:
.LFB49:
	.cfi_startproc
	pushq	%rbp
	.cfi_def_cfa_offset 16
	.cfi_offset 6, -16
	movq	%rsp, %rbp
	.cfi_def_cfa_register 6
	subq	$48, %rsp
	movq	%rdi, -40(%rbp)
	movq	%rsi, -48(%rbp)
	leaq	-16(%rbp), %rdi
	movq	-48(%rbp), %rsi
	movq	-40(%rbp), %rdx
	movq	-40(%rbp), %rax
	leaq	-12(%rbp), %rcx
	pushq	%rcx
	leaq	-8(%rbp), %rcx
	pushq	%rcx
	leaq	-20(%rbp), %rcx
	pushq	%rcx
	leaq	-24(%rbp), %rcx
	pushq	%rcx
	movq	%rdi, %r9
	movq	%rsi, %r8
	leaq	.LC6(%rip), %rcx
	movq	%rax, %rsi
	leaq	.LC11(%rip), %rdi
	call	fmentr_
	addq	$32, %rsp
	movl	-16(%rbp), %eax
	testl	%eax, %eax
	jne	.L868
	movq	-40(%rbp), %rax
	movl	4(%rax), %eax
	movl	%eax, -4(%rbp)
	leaq	-24(%rbp), %rdx
	movq	-48(%rbp), %rsi
	movq	-40(%rbp), %rax
	leaq	fmuser_(%rip), %rcx
	movq	%rax, %rdi
	call	fmequ_
	movq	-48(%rbp), %rax
	movl	4(%rax), %eax
	cltd
	xorl	%edx, %eax
	subl	%edx, %eax
	movq	-48(%rbp), %rdx
	movl	%eax, 4(%rdx)
	leaq	5232+fm1_(%rip), %rsi
	leaq	.LC6(%rip), %rdi
	call	fmi2m_
	movq	-48(%rbp), %rax
	leaq	2616+fm1_(%rip), %rdx
	movq	%rax, %rsi
	leaq	5232+fm1_(%rip), %rdi
	call	fmsub_
	movq	-48(%rbp), %rax
	leaq	3924+fm1_(%rip), %rdx
	movq	%rax, %rsi
	leaq	5232+fm1_(%rip), %rdi
	call	fmadd_
	leaq	3924+fm1_(%rip), %rdx
	leaq	3924+fm1_(%rip), %rsi
	leaq	2616+fm1_(%rip), %rdi
	call	fmmpy_
	leaq	3924+fm1_(%rip), %rsi
	leaq	3924+fm1_(%rip), %rdi
	call	fmsqrt_
	movq	-48(%rbp), %rdx
	movq	-48(%rbp), %rax
	movq	%rax, %rsi
	leaq	3924+fm1_(%rip), %rdi
	call	fmdiv_
	movq	-48(%rbp), %rdx
	movq	-48(%rbp), %rax
	movq	%rdx, %rsi
	movq	%rax, %rdi
	call	fmatan_
	cmpl	$0, -4(%rbp)
	jns	.L871
	movl	16+fmuser_(%rip), %eax
	cmpl	$1, %eax
	jne	.L872
	leaq	5232+fm1_(%rip), %rdi
	call	fmpi_
	jmp	.L873
.L872:
	leaq	5232+fm1_(%rip), %rsi
	leaq	.LC17(%rip), %rdi
	call	fmi2m_
.L873:
	movq	-48(%rbp), %rdx
	movq	-48(%rbp), %rax
	movq	%rax, %rsi
	leaq	5232+fm1_(%rip), %rdi
	call	fmsub_
.L871:
	leaq	-12(%rbp), %r8
	leaq	-8(%rbp), %rdi
	leaq	-20(%rbp), %rcx
	leaq	-24(%rbp), %rdx
	movq	-48(%rbp), %rsi
	movq	-48(%rbp), %rax
	movq	%r8, %r9
	movq	%rdi, %r8
	movq	%rax, %rdi
	call	fmexit_
	nop
.L868:
	leave
	.cfi_def_cfa 7, 8
	ret
	.cfi_endproc
.LFE49:
	.size	fmacos_, .-fmacos_
	.globl	fmabs_
	.type	fmabs_, @function
fmabs_:
.LFB50:
	.cfi_startproc
	pushq	%rbp
	.cfi_def_cfa_offset 16
	.cfi_offset 6, -16
	movq	%rsp, %rbp
	.cfi_def_cfa_register 6
	subq	$32, %rsp
	movq	%rdi, -24(%rbp)
	movq	%rsi, -32(%rbp)
	movl	2616+fm_(%rip), %eax
	addl	$1, %eax
	movl	%eax, 2616+fm_(%rip)
	movl	2616+fm_(%rip), %eax
	cltq
	subq	$1, %rax
	addq	$665, %rax
	leaq	0(,%rax,4), %rdx
	leaq	fm_(%rip), %rax
	movl	$1, (%rdx,%rax)
	movl	24+fmuser_(%rip), %eax
	testl	%eax, %eax
	je	.L876
	movq	-24(%rbp), %rdx
	movq	-24(%rbp), %rax
	leaq	.LC6(%rip), %rcx
	movq	%rax, %rsi
	leaq	.LC11(%rip), %rdi
	call	fmntr_
.L876:
	movl	$0, 32+fmuser_(%rip)
	movl	36+fmuser_(%rip), %eax
	movl	%eax, -4(%rbp)
	movl	$0, 36+fmuser_(%rip)
	movq	-32(%rbp), %rsi
	movq	-24(%rbp), %rax
	leaq	fmuser_(%rip), %rcx
	leaq	fmuser_(%rip), %rdx
	movq	%rax, %rdi
	call	fmequ_
	movq	-32(%rbp), %rax
	movl	4(%rax), %eax
	cltd
	xorl	%edx, %eax
	subl	%edx, %eax
	movq	-32(%rbp), %rdx
	movl	%eax, 4(%rdx)
	movl	-4(%rbp), %eax
	movl	%eax, 36+fmuser_(%rip)
	movl	24+fmuser_(%rip), %eax
	testl	%eax, %eax
	je	.L877
	movq	-32(%rbp), %rdx
	movq	-32(%rbp), %rax
	leaq	.LC6(%rip), %rcx
	movq	%rax, %rsi
	leaq	.LC6(%rip), %rdi
	call	fmntr_
.L877:
	movl	2616+fm_(%rip), %eax
	subl	$1, %eax
	movl	%eax, 2616+fm_(%rip)
	nop
	leave
	.cfi_def_cfa 7, 8
	ret
	.cfi_endproc
.LFE50:
	.size	fmabs_, .-fmabs_
	.section	.rodata
.LC72:
	.ascii	"(' INPUT TO FM',A4)"
	.align 8
.LC73:
	.ascii	"(' FM',A4,15X,'CALL LEVEL =',I2,5X,'JBASE =',               "
	.ascii	"       I10,5X,'NDIG =',I6)"
	.align 8
.LC74:
	.ascii	"(' FM',A4,6X,'CALL LEVEL =',I2,4X,'JBASE =',                "
	.ascii	"       I10,4X,'NDIG =',I6,4X,'KFLAG =',I3)"
	.text
	.globl	fmntr_
	.type	fmntr_, @function
fmntr_:
.LFB51:
	.cfi_startproc
	pushq	%rbp
	.cfi_def_cfa_offset 16
	.cfi_offset 6, -16
	movq	%rsp, %rbp
	.cfi_def_cfa_register 6
	subq	$576, %rsp
	movq	%rdi, -552(%rbp)
	movq	%rsi, -560(%rbp)
	movq	%rdx, -568(%rbp)
	movq	%rcx, -576(%rbp)
	movl	24+fmuser_(%rip), %eax
	testl	%eax, %eax
	je	.L879
	movl	2616+fm_(%rip), %edx
	movl	28+fmuser_(%rip), %eax
	cmpl	%eax, %edx
	jg	.L879
	movq	-552(%rbp), %rax
	movl	(%rax), %eax
	cmpl	$2, %eax
	sete	%al
	movzbl	%al, %ecx
	movl	24+fmuser_(%rip), %eax
	cltd
	xorl	%edx, %eax
	subl	%edx, %eax
	cmpl	$1, %eax
	sete	%al
	movzbl	%al, %eax
	andl	%ecx, %eax
	testl	%eax, %eax
	jne	.L879
	movq	-552(%rbp), %rax
	movl	(%rax), %eax
	cmpl	$2, %eax
	jne	.L884
	leaq	-4(%rbp), %rax
	movl	$4, %esi
	movq	%rax, %rdi
	call	fmname_
	leaq	.LC1(%rip), %rax
	movq	%rax, -536(%rbp)
	movl	$6432, -528(%rbp)
	leaq	.LC72(%rip), %rax
	movq	%rax, -464(%rbp)
	movq	$19, -456(%rbp)
	movl	$4096, -544(%rbp)
	movl	20+fmuser_(%rip), %eax
	movl	%eax, -540(%rbp)
	leaq	-544(%rbp), %rax
	movq	%rax, %rdi
	call	_gfortran_st_write@PLT
	leaq	-4(%rbp), %rcx
	leaq	-544(%rbp), %rax
	movl	$4, %edx
	movq	%rcx, %rsi
	movq	%rax, %rdi
	call	_gfortran_transfer_character_write@PLT
	leaq	-544(%rbp), %rax
	movq	%rax, %rdi
	call	_gfortran_st_write_done@PLT
	jmp	.L885
.L884:
	leaq	-4(%rbp), %rax
	movl	$4, %esi
	movq	%rax, %rdi
	call	fmname_
	movl	32+fmuser_(%rip), %eax
	testl	%eax, %eax
	jne	.L886
	leaq	.LC1(%rip), %rax
	movq	%rax, -536(%rbp)
	movl	$6437, -528(%rbp)
	leaq	.LC73(%rip), %rax
	movq	%rax, -464(%rbp)
	movq	$86, -456(%rbp)
	movl	$4096, -544(%rbp)
	movl	20+fmuser_(%rip), %eax
	movl	%eax, -540(%rbp)
	leaq	-544(%rbp), %rax
	movq	%rax, %rdi
	call	_gfortran_st_write@PLT
	leaq	-4(%rbp), %rcx
	leaq	-544(%rbp), %rax
	movl	$4, %edx
	movq	%rcx, %rsi
	movq	%rax, %rdi
	call	_gfortran_transfer_character_write@PLT
	leaq	-544(%rbp), %rax
	movl	$4, %edx
	leaq	2616+fm_(%rip), %rsi
	movq	%rax, %rdi
	call	_gfortran_transfer_integer_write@PLT
	leaq	-544(%rbp), %rax
	movl	$4, %edx
	leaq	4+fmuser_(%rip), %rsi
	movq	%rax, %rdi
	call	_gfortran_transfer_integer_write@PLT
	leaq	-544(%rbp), %rax
	movl	$4, %edx
	leaq	fmuser_(%rip), %rsi
	movq	%rax, %rdi
	call	_gfortran_transfer_integer_write@PLT
	leaq	-544(%rbp), %rax
	movq	%rax, %rdi
	call	_gfortran_st_write_done@PLT
	jmp	.L885
.L886:
	leaq	.LC1(%rip), %rax
	movq	%rax, -536(%rbp)
	movl	$6441, -528(%rbp)
	leaq	.LC74(%rip), %rax
	movq	%rax, -464(%rbp)
	movq	$102, -456(%rbp)
	movl	$4096, -544(%rbp)
	movl	20+fmuser_(%rip), %eax
	movl	%eax, -540(%rbp)
	leaq	-544(%rbp), %rax
	movq	%rax, %rdi
	call	_gfortran_st_write@PLT
	leaq	-4(%rbp), %rcx
	leaq	-544(%rbp), %rax
	movl	$4, %edx
	movq	%rcx, %rsi
	movq	%rax, %rdi
	call	_gfortran_transfer_character_write@PLT
	leaq	-544(%rbp), %rax
	movl	$4, %edx
	leaq	2616+fm_(%rip), %rsi
	movq	%rax, %rdi
	call	_gfortran_transfer_integer_write@PLT
	leaq	-544(%rbp), %rax
	movl	$4, %edx
	leaq	4+fmuser_(%rip), %rsi
	movq	%rax, %rdi
	call	_gfortran_transfer_integer_write@PLT
	leaq	-544(%rbp), %rax
	movl	$4, %edx
	leaq	fmuser_(%rip), %rsi
	movq	%rax, %rdi
	call	_gfortran_transfer_integer_write@PLT
	leaq	-544(%rbp), %rax
	movl	$4, %edx
	leaq	32+fmuser_(%rip), %rsi
	movq	%rax, %rdi
	call	_gfortran_transfer_integer_write@PLT
	leaq	-544(%rbp), %rax
	movq	%rax, %rdi
	call	_gfortran_st_write_done@PLT
.L885:
	movl	24+fmuser_(%rip), %eax
	testl	%eax, %eax
	jns	.L887
	movq	-560(%rbp), %rax
	leaq	fmuser_(%rip), %rsi
	movq	%rax, %rdi
	call	fmntrj_
	movq	-576(%rbp), %rax
	movl	(%rax), %eax
	cmpl	$2, %eax
	jne	.L887
	movq	-568(%rbp), %rax
	leaq	fmuser_(%rip), %rsi
	movq	%rax, %rdi
	call	fmntrj_
.L887:
	movl	24+fmuser_(%rip), %eax
	testl	%eax, %eax
	jle	.L890
	movq	-560(%rbp), %rax
	movq	%rax, %rdi
	call	fmprnt_
	movq	-576(%rbp), %rax
	movl	(%rax), %eax
	cmpl	$2, %eax
	jne	.L890
	movq	-568(%rbp), %rax
	movq	%rax, %rdi
	call	fmprnt_
.L890:
	nop
.L879:
	leave
	.cfi_def_cfa 7, 8
	ret
	.cfi_endproc
.LFE51:
	.size	fmntr_, .-fmntr_
	.globl	fmmove_
	.type	fmmove_, @function
fmmove_:
.LFB52:
	.cfi_startproc
	pushq	%rbp
	.cfi_def_cfa_offset 16
	.cfi_offset 6, -16
	movq	%rsp, %rbp
	.cfi_def_cfa_register 6
	subq	$32, %rsp
	movq	%rdi, -24(%rbp)
	movl	4+fm_(%rip), %eax
	testl	%eax, %eax
	je	.L892
	movl	fmuser_(%rip), %eax
	addl	$1, %eax
	movl	%eax, -12(%rbp)
	movl	-12(%rbp), %ecx
	movl	$1, -4(%rbp)
.L894:
	cmpl	%ecx, -4(%rbp)
	setg	%al
	movzbl	%al, %eax
	testl	%eax, %eax
	jne	.L901
	movl	-4(%rbp), %eax
	cltq
	leaq	-1(%rax), %rdx
	movl	-4(%rbp), %eax
	cltq
	leaq	-1(%rax), %rsi
	salq	$2, %rdx
	leaq	fm_(%rip), %rax
	movl	(%rdx,%rax), %edx
	movq	-24(%rbp), %rax
	movl	%edx, (%rax,%rsi,4)
	addl	$1, -4(%rbp)
	jmp	.L894
.L892:
	movl	fmuser_(%rip), %eax
	addl	$2, %eax
	movl	%eax, -8(%rbp)
	movl	-8(%rbp), %ecx
	movl	$3, -4(%rbp)
.L897:
	cmpl	%ecx, -4(%rbp)
	setg	%al
	movzbl	%al, %eax
	testl	%eax, %eax
	jne	.L902
	movl	-4(%rbp), %eax
	cltq
	leaq	-1(%rax), %rdx
	movl	-4(%rbp), %eax
	subl	$1, %eax
	cltq
	leaq	-1(%rax), %rsi
	salq	$2, %rdx
	leaq	fm_(%rip), %rax
	movl	(%rdx,%rax), %edx
	movq	-24(%rbp), %rax
	movl	%edx, (%rax,%rsi,4)
	addl	$1, -4(%rbp)
	jmp	.L897
.L902:
	nop
	movq	-24(%rbp), %rax
	movl	4(%rax), %eax
	testl	%eax, %eax
	je	.L898
	movl	fm_(%rip), %eax
	leal	-1(%rax), %edx
	movq	-24(%rbp), %rax
	movl	%edx, (%rax)
	jmp	.L895
.L898:
	movq	-24(%rbp), %rax
	movl	$0, (%rax)
	jmp	.L895
.L901:
	nop
.L895:
	movq	-24(%rbp), %rax
	movl	(%rax), %eax
	cltd
	xorl	%edx, %eax
	subl	%edx, %eax
	movl	2620+fm_(%rip), %edx
	cmpl	%edx, %eax
	jle	.L903
	movq	-24(%rbp), %rax
	movq	%rax, %rdi
	call	fmtrap_
	nop
.L903:
	nop
	leave
	.cfi_def_cfa 7, 8
	ret
	.cfi_endproc
.LFE52:
	.size	fmmove_, .-fmmove_
	.section	.rodata
	.align 8
.LC75:
	.ascii	"(/' ERROR OF TYPE KFLAG =',I3,                              "
	.ascii	"       ' IN FM PACKAGE IN ROUTINE FM',A4/)"
.LC76:
	.ascii	"( ' CALLED FROM FM',A4)"
	.align 8
.LC77:
	.ascii	"(' NDIG MUST BE BETWEEN 2 AND',I10/)"
	.align 4
.LC78:
	.long	256
	.align 8
.LC79:
	.ascii	"(' JBASE MUST BE BETWEEN 2 AND',I10/)"
	.align 8
.LC80:
	.ascii	"(' AN INPUT ARGUMENT IS NOT A VALID FM NUMBER.',            "
	.ascii	"       '  ITS EXPONENT IS OUT OF RANGE.'/)"
	.align 8
.LC81:
	.ascii	"(' UNKNOWN HAS BEEN RETURNED.'/)"
	.align 8
.LC82:
	.ascii	"(' INVALID INPUT ARGUMENT FOR THIS ROUTINE.'/)"
	.align 8
.LC83:
	.ascii	"(' THE RESULT HAS OVERFLOWED.'/)"
	.align 8
.LC84:
	.ascii	"(' THE RESULT HAS UNDERFLOWED.'/)"
	.align 8
.LC85:
	.ascii	"(' THE RESULT ARRAY IS NOT BIG ENOUGH TO HOLD THE',         "
	.ascii	"       ' OUTPUT CHARACTER STRING'/' IN THE CURRENT FORMAT.'/"
	.ascii	"             ' THE RESULT ''***...***'' HAS BEEN RETURNED.'/"
	.ascii	")"
	.align 8
.LC86:
	.ascii	"(' PRECISION COULD NOT BE RAISED ENOUGH TO PROVIDE ALL'     "
	.ascii	"       ,' REQUESTED GUARD DIGITS.'/)"
	.align 8
.LC87:
	.ascii	"(' REQUESTED NDIG=',I7,'.  MAXIMUM AVAILABLE NDIG=',I7/)"
	.align 8
.LC88:
	.ascii	"(' AN FM NUMBER WAS TOO SMALL IN MAGNITUDE TO ',            "
	.ascii	"       'CONVERT TO SINGLE PRECISION.'/)"
	.align 8
.LC89:
	.ascii	"(' AN FM NUMBER WAS TOO SMALL IN MAGNITUDE TO ',            "
	.ascii	"       'CONVERT TO DOUBLE PRECISION.'/)"
.LC90:
	.ascii	"(' ZERO HAS BEEN RETURNED.'/)"
	.text
	.globl	fmwarn_
	.type	fmwarn_, @function
fmwarn_:
.LFB53:
	.cfi_startproc
	pushq	%rbp
	.cfi_def_cfa_offset 16
	.cfi_offset 6, -16
	movq	%rsp, %rbp
	.cfi_def_cfa_register 6
	subq	$544, %rsp
	movl	32+fmuser_(%rip), %eax
	notl	%eax
	shrl	$31, %eax
	movl	%eax, %edx
	movl	2616+fm_(%rip), %eax
	cmpl	$1, %eax
	setne	%al
	movzbl	%al, %eax
	orl	%eax, %edx
	movl	36+fmuser_(%rip), %eax
	testl	%eax, %eax
	setle	%al
	movzbl	%al, %eax
	orl	%edx, %eax
	testl	%eax, %eax
	jne	.L904
	movl	2616+fm_(%rip), %eax
	movl	%eax, -4(%rbp)
	leaq	-8(%rbp), %rax
	movl	$4, %esi
	movq	%rax, %rdi
	call	fmname_
	leaq	.LC1(%rip), %rax
	movq	%rax, -536(%rbp)
	movl	$8714, -528(%rbp)
	leaq	.LC75(%rip), %rax
	movq	%rax, -464(%rbp)
	movq	$102, -456(%rbp)
	movl	$4096, -544(%rbp)
	movl	20+fmuser_(%rip), %eax
	movl	%eax, -540(%rbp)
	leaq	-544(%rbp), %rax
	movq	%rax, %rdi
	call	_gfortran_st_write@PLT
	leaq	-544(%rbp), %rax
	movl	$4, %edx
	leaq	32+fmuser_(%rip), %rsi
	movq	%rax, %rdi
	call	_gfortran_transfer_integer_write@PLT
	leaq	-8(%rbp), %rcx
	leaq	-544(%rbp), %rax
	movl	$4, %edx
	movq	%rcx, %rsi
	movq	%rax, %rdi
	call	_gfortran_transfer_character_write@PLT
	leaq	-544(%rbp), %rax
	movq	%rax, %rdi
	call	_gfortran_st_write_done@PLT
.L908:
	movl	2616+fm_(%rip), %eax
	subl	$1, %eax
	movl	%eax, 2616+fm_(%rip)
	movl	2616+fm_(%rip), %eax
	testl	%eax, %eax
	jle	.L907
	leaq	-8(%rbp), %rax
	movl	$4, %esi
	movq	%rax, %rdi
	call	fmname_
	leaq	.LC1(%rip), %rax
	movq	%rax, -536(%rbp)
	movl	$8721, -528(%rbp)
	leaq	.LC76(%rip), %rax
	movq	%rax, -464(%rbp)
	movq	$23, -456(%rbp)
	movl	$4096, -544(%rbp)
	movl	20+fmuser_(%rip), %eax
	movl	%eax, -540(%rbp)
	leaq	-544(%rbp), %rax
	movq	%rax, %rdi
	call	_gfortran_st_write@PLT
	leaq	-8(%rbp), %rcx
	leaq	-544(%rbp), %rax
	movl	$4, %edx
	movq	%rcx, %rsi
	movq	%rax, %rdi
	call	_gfortran_transfer_character_write@PLT
	leaq	-544(%rbp), %rax
	movq	%rax, %rdi
	call	_gfortran_st_write_done@PLT
	jmp	.L908
.L907:
	movl	32+fmuser_(%rip), %eax
	cmpl	$-1, %eax
	jne	.L909
	leaq	.LC1(%rip), %rax
	movq	%rax, -536(%rbp)
	movl	$8727, -528(%rbp)
	leaq	.LC77(%rip), %rax
	movq	%rax, -464(%rbp)
	movq	$36, -456(%rbp)
	movl	$4096, -544(%rbp)
	movl	20+fmuser_(%rip), %eax
	movl	%eax, -540(%rbp)
	leaq	-544(%rbp), %rax
	movq	%rax, %rdi
	call	_gfortran_st_write@PLT
	leaq	-544(%rbp), %rax
	movl	$4, %edx
	leaq	.LC78(%rip), %rsi
	movq	%rax, %rdi
	call	_gfortran_transfer_integer_write@PLT
	leaq	-544(%rbp), %rax
	movq	%rax, %rdi
	call	_gfortran_st_write_done@PLT
	jmp	.L910
.L909:
	movl	32+fmuser_(%rip), %eax
	cmpl	$-2, %eax
	jne	.L911
	leaq	.LC1(%rip), %rax
	movq	%rax, -536(%rbp)
	movl	$8730, -528(%rbp)
	leaq	.LC79(%rip), %rax
	movq	%rax, -464(%rbp)
	movq	$37, -456(%rbp)
	movl	$4096, -544(%rbp)
	movl	20+fmuser_(%rip), %eax
	movl	%eax, -540(%rbp)
	leaq	-544(%rbp), %rax
	movq	%rax, %rdi
	call	_gfortran_st_write@PLT
	leaq	-544(%rbp), %rax
	movl	$4, %edx
	leaq	2652+fm_(%rip), %rsi
	movq	%rax, %rdi
	call	_gfortran_transfer_integer_write@PLT
	leaq	-544(%rbp), %rax
	movq	%rax, %rdi
	call	_gfortran_st_write_done@PLT
	jmp	.L910
.L911:
	movl	32+fmuser_(%rip), %eax
	cmpl	$-3, %eax
	jne	.L912
	leaq	.LC1(%rip), %rax
	movq	%rax, -536(%rbp)
	movl	$8733, -528(%rbp)
	leaq	.LC80(%rip), %rax
	movq	%rax, -464(%rbp)
	movq	$102, -456(%rbp)
	movl	$4096, -544(%rbp)
	movl	20+fmuser_(%rip), %eax
	movl	%eax, -540(%rbp)
	leaq	-544(%rbp), %rax
	movq	%rax, %rdi
	call	_gfortran_st_write@PLT
	leaq	-544(%rbp), %rax
	movq	%rax, %rdi
	call	_gfortran_st_write_done@PLT
	leaq	.LC1(%rip), %rax
	movq	%rax, -536(%rbp)
	movl	$8736, -528(%rbp)
	leaq	.LC81(%rip), %rax
	movq	%rax, -464(%rbp)
	movq	$32, -456(%rbp)
	movl	$4096, -544(%rbp)
	movl	20+fmuser_(%rip), %eax
	movl	%eax, -540(%rbp)
	leaq	-544(%rbp), %rax
	movq	%rax, %rdi
	call	_gfortran_st_write@PLT
	leaq	-544(%rbp), %rax
	movq	%rax, %rdi
	call	_gfortran_st_write_done@PLT
	jmp	.L910
.L912:
	movl	32+fmuser_(%rip), %eax
	cmpl	$-4, %eax
	sete	%al
	movzbl	%al, %edx
	movl	32+fmuser_(%rip), %eax
	cmpl	$-7, %eax
	sete	%al
	movzbl	%al, %eax
	orl	%edx, %eax
	testl	%eax, %eax
	je	.L913
	leaq	.LC1(%rip), %rax
	movq	%rax, -536(%rbp)
	movl	$8739, -528(%rbp)
	leaq	.LC82(%rip), %rax
	movq	%rax, -464(%rbp)
	movq	$46, -456(%rbp)
	movl	$4096, -544(%rbp)
	movl	20+fmuser_(%rip), %eax
	movl	%eax, -540(%rbp)
	leaq	-544(%rbp), %rax
	movq	%rax, %rdi
	call	_gfortran_st_write@PLT
	leaq	-544(%rbp), %rax
	movq	%rax, %rdi
	call	_gfortran_st_write_done@PLT
	leaq	.LC1(%rip), %rax
	movq	%rax, -536(%rbp)
	movl	$8741, -528(%rbp)
	leaq	.LC81(%rip), %rax
	movq	%rax, -464(%rbp)
	movq	$32, -456(%rbp)
	movl	$4096, -544(%rbp)
	movl	20+fmuser_(%rip), %eax
	movl	%eax, -540(%rbp)
	leaq	-544(%rbp), %rax
	movq	%rax, %rdi
	call	_gfortran_st_write@PLT
	leaq	-544(%rbp), %rax
	movq	%rax, %rdi
	call	_gfortran_st_write_done@PLT
	jmp	.L910
.L913:
	movl	32+fmuser_(%rip), %eax
	cmpl	$-5, %eax
	jne	.L914
	leaq	.LC1(%rip), %rax
	movq	%rax, -536(%rbp)
	movl	$8743, -528(%rbp)
	leaq	.LC83(%rip), %rax
	movq	%rax, -464(%rbp)
	movq	$32, -456(%rbp)
	movl	$4096, -544(%rbp)
	movl	20+fmuser_(%rip), %eax
	movl	%eax, -540(%rbp)
	leaq	-544(%rbp), %rax
	movq	%rax, %rdi
	call	_gfortran_st_write@PLT
	leaq	-544(%rbp), %rax
	movq	%rax, %rdi
	call	_gfortran_st_write_done@PLT
	jmp	.L910
.L914:
	movl	32+fmuser_(%rip), %eax
	cmpl	$-6, %eax
	jne	.L915
	leaq	.LC1(%rip), %rax
	movq	%rax, -536(%rbp)
	movl	$8746, -528(%rbp)
	leaq	.LC84(%rip), %rax
	movq	%rax, -464(%rbp)
	movq	$33, -456(%rbp)
	movl	$4096, -544(%rbp)
	movl	20+fmuser_(%rip), %eax
	movl	%eax, -540(%rbp)
	leaq	-544(%rbp), %rax
	movq	%rax, %rdi
	call	_gfortran_st_write@PLT
	leaq	-544(%rbp), %rax
	movq	%rax, %rdi
	call	_gfortran_st_write_done@PLT
	jmp	.L910
.L915:
	movl	32+fmuser_(%rip), %eax
	cmpl	$-8, %eax
	jne	.L916
	leaq	.LC1(%rip), %rax
	movq	%rax, -536(%rbp)
	movl	$8749, -528(%rbp)
	leaq	.LC85(%rip), %rax
	movq	%rax, -464(%rbp)
	movq	$181, -456(%rbp)
	movl	$4096, -544(%rbp)
	movl	20+fmuser_(%rip), %eax
	movl	%eax, -540(%rbp)
	leaq	-544(%rbp), %rax
	movq	%rax, %rdi
	call	_gfortran_st_write@PLT
	leaq	-544(%rbp), %rax
	movq	%rax, %rdi
	call	_gfortran_st_write_done@PLT
	jmp	.L910
.L916:
	movl	32+fmuser_(%rip), %eax
	cmpl	$-9, %eax
	jne	.L917
	leaq	.LC1(%rip), %rax
	movq	%rax, -536(%rbp)
	movl	$8754, -528(%rbp)
	leaq	.LC86(%rip), %rax
	movq	%rax, -464(%rbp)
	movq	$96, -456(%rbp)
	movl	$4096, -544(%rbp)
	movl	20+fmuser_(%rip), %eax
	movl	%eax, -540(%rbp)
	leaq	-544(%rbp), %rax
	movq	%rax, %rdi
	call	_gfortran_st_write@PLT
	leaq	-544(%rbp), %rax
	movq	%rax, %rdi
	call	_gfortran_st_write_done@PLT
	leaq	.LC1(%rip), %rax
	movq	%rax, -536(%rbp)
	movl	$8757, -528(%rbp)
	leaq	.LC87(%rip), %rax
	movq	%rax, -464(%rbp)
	movq	$56, -456(%rbp)
	movl	$4096, -544(%rbp)
	movl	20+fmuser_(%rip), %eax
	movl	%eax, -540(%rbp)
	leaq	-544(%rbp), %rax
	movq	%rax, %rdi
	call	_gfortran_st_write@PLT
	leaq	-544(%rbp), %rax
