	.file	"area.c"
	.text
	.globl	circle
	.type	circle, @function
circle:
.LFB6:
	.cfi_startproc
	endbr64
	pushq	%rbp
	.cfi_def_cfa_offset 16
	.cfi_offset 6, -16
	movq	%rsp, %rbp
	.cfi_def_cfa_register 6
	movsd	%xmm0, -8(%rbp)
	movsd	-8(%rbp), %xmm0
	movapd	%xmm0, %xmm1
	mulsd	%xmm0, %xmm1
	movsd	.LC0(%rip), %xmm0
	mulsd	%xmm1, %xmm0
	popq	%rbp
	.cfi_def_cfa 7, 8
	ret
	.cfi_endproc
.LFE6:
	.size	circle, .-circle
	.section	.rodata
.LC1:
	.string	" radius"
.LC2:
	.string	"Usage:"
.LC3:
	.string	"\n%s%s%s"
.LC4:
	.string	" = "
.LC5:
	.string	"area of circle with radius"
.LC6:
	.string	"\n%s%lf%s%lf"
	.text
	.globl	main
	.type	main, @function
main:
.LFB7:
	.cfi_startproc
	endbr64
	pushq	%rbp
	.cfi_def_cfa_offset 16
	.cfi_offset 6, -16
	movq	%rsp, %rbp
	.cfi_def_cfa_register 6
	subq	$32, %rsp
	movl	%edi, -20(%rbp)
	movq	%rsi, -32(%rbp)
	cmpl	$1, -20(%rbp)
	jg	.L4
	movq	-32(%rbp), %rax
	movq	(%rax), %rax
	movq	%rax, %rcx
	leaq	.LC1(%rip), %rdx
	leaq	.LC2(%rip), %rsi
	leaq	.LC3(%rip), %rdi
	movl	$0, %eax
	call	printf@PLT
	movl	$1, %edi
	call	exit@PLT
.L4:
	movq	-32(%rbp), %rax
	addq	$8, %rax
	movq	(%rax), %rax
	movq	%rax, %rdi
	call	atof@PLT
	movq	%xmm0, %rax
	movq	%rax, -16(%rbp)
	movq	-16(%rbp), %rax
	movq	%rax, %xmm0
	call	circle
	movq	%xmm0, %rax
	movq	%rax, -8(%rbp)
	movsd	-8(%rbp), %xmm0
	movq	-16(%rbp), %rax
	movapd	%xmm0, %xmm1
	leaq	.LC4(%rip), %rdx
	movq	%rax, %xmm0
	leaq	.LC5(%rip), %rsi
	leaq	.LC6(%rip), %rdi
	movl	$2, %eax
	call	printf@PLT
	movl	$0, %eax
	leave
	.cfi_def_cfa 7, 8
	ret
	.cfi_endproc
.LFE7:
	.size	main, .-main
	.section	.rodata
	.align 8
.LC0:
	.long	1413754136
	.long	1076437499
	.ident	"GCC: (Ubuntu 9.3.0-17ubuntu1~20.04) 9.3.0"
	.section	.note.GNU-stack,"",@progbits
	.section	.note.gnu.property,"a"
	.align 8
	.long	 1f - 0f
	.long	 4f - 1f
	.long	 5
0:
	.string	 "GNU"
1:
	.align 8
	.long	 0xc0000002
	.long	 3f - 2f
2:
	.long	 0x3
3:
	.align 8
4:
