	.file	"cointoss.c"
	.text
	.section	.rodata
.LC0:
	.string	"%d\n"
.LC1:
	.string	"heads was flipped %d times\n"
.LC2:
	.string	"tails was flipped %d times\n"
	.text
	.globl	main
	.type	main, @function
main:
.LFB6:
	.cfi_startproc
	endbr64
	pushq	%rbp
	.cfi_def_cfa_offset 16
	.cfi_offset 6, -16
	movq	%rsp, %rbp
	.cfi_def_cfa_register 6
	subq	$16, %rsp
	movl	$0, -8(%rbp)
	movl	$0, -4(%rbp)
	movl	$0, %edi
	call	time@PLT
	movl	%eax, %edi
	call	srand@PLT
	movl	$1, -12(%rbp)
	jmp	.L2
.L5:
	movl	$0, %eax
	call	flip
	movl	%eax, %esi
	leaq	.LC0(%rip), %rdi
	movl	$0, %eax
	call	printf@PLT
	movl	$0, %eax
	call	flip
	testl	%eax, %eax
	jne	.L3
	addl	$1, -8(%rbp)
	jmp	.L4
.L3:
	addl	$1, -4(%rbp)
.L4:
	addl	$1, -12(%rbp)
.L2:
	cmpl	$100, -12(%rbp)
	jle	.L5
	movl	-8(%rbp), %eax
	movl	%eax, %esi
	leaq	.LC1(%rip), %rdi
	movl	$0, %eax
	call	printf@PLT
	movl	-4(%rbp), %eax
	movl	%eax, %esi
	leaq	.LC2(%rip), %rdi
	movl	$0, %eax
	call	printf@PLT
	movl	$0, %eax
	leave
	.cfi_def_cfa 7, 8
	ret
	.cfi_endproc
.LFE6:
	.size	main, .-main
	.globl	flip
	.type	flip, @function
flip:
.LFB7:
	.cfi_startproc
	endbr64
	pushq	%rbp
	.cfi_def_cfa_offset 16
	.cfi_offset 6, -16
	movq	%rsp, %rbp
	.cfi_def_cfa_register 6
	subq	$16, %rsp
	call	rand@PLT
	cltd
	shrl	$31, %edx
	addl	%edx, %eax
	andl	$1, %eax
	subl	%edx, %eax
	movl	%eax, -4(%rbp)
	cmpl	$0, -4(%rbp)
	jne	.L8
	movl	$0, %eax
	jmp	.L9
.L8:
	movl	$1, %eax
.L9:
	leave
	.cfi_def_cfa 7, 8
	ret
	.cfi_endproc
.LFE7:
	.size	flip, .-flip
	.ident	"GCC: (Ubuntu 9.3.0-17ubuntu1~20.04) 9.3.0"
	.section	.note.GNU-stack,"",@progbits
	.section	.note.gnu.property,"a"
	.align 8
	.long	 1f - 0f
	.long	 4f - 1f
	.long	 5
0:
	.string	 "GNU"
1:
	.align 8
	.long	 0xc0000002
	.long	 3f - 2f
2:
	.long	 0x3
3:
	.align 8
4:
