	.file	"fib2.c"
	.text
	.section	.rodata
.LC0:
	.string	"enter a number "
.LC1:
	.string	"\n%s"
.LC2:
	.string	"%d"
.LC3:
	.string	" fibonacci number = "
.LC4:
	.string	" count = "
.LC5:
	.string	"\n%s%d%s%d"
	.text
	.globl	main
	.type	main, @function
main:
.LFB6:
	.cfi_startproc
	endbr64
	pushq	%rbp
	.cfi_def_cfa_offset 16
	.cfi_offset 6, -16
	movq	%rsp, %rbp
	.cfi_def_cfa_register 6
	subq	$16, %rsp
	movq	%fs:40, %rax
	movq	%rax, -8(%rbp)
	xorl	%eax, %eax
	leaq	.LC0(%rip), %rsi
	leaq	.LC1(%rip), %rdi
	movl	$0, %eax
	call	printf@PLT
	leaq	-16(%rbp), %rax
	movq	%rax, %rsi
	leaq	.LC2(%rip), %rdi
	movl	$0, %eax
	call	__isoc99_scanf@PLT
	movl	-16(%rbp), %eax
	movl	%eax, %edi
	call	fibonacci
	movl	%eax, -12(%rbp)
	movl	-16(%rbp), %eax
	movl	-12(%rbp), %edx
	movl	%edx, %r8d
	leaq	.LC3(%rip), %rcx
	movl	%eax, %edx
	leaq	.LC4(%rip), %rsi
	leaq	.LC5(%rip), %rdi
	movl	$0, %eax
	call	printf@PLT
	movl	$0, %eax
	movq	-8(%rbp), %rcx
	xorq	%fs:40, %rcx
	je	.L3
	call	__stack_chk_fail@PLT
.L3:
	leave
	.cfi_def_cfa 7, 8
	ret
	.cfi_endproc
.LFE6:
	.size	main, .-main
	.globl	fibonacci
	.type	fibonacci, @function
fibonacci:
.LFB7:
	.cfi_startproc
	endbr64
	pushq	%rbp
	.cfi_def_cfa_offset 16
	.cfi_offset 6, -16
	movq	%rsp, %rbp
	.cfi_def_cfa_register 6
	pushq	%rbx
	subq	$24, %rsp
	.cfi_offset 3, -24
	movl	%edi, -20(%rbp)
	cmpl	$1, -20(%rbp)
	jg	.L5
	movl	-20(%rbp), %eax
	jmp	.L6
.L5:
	movl	-20(%rbp), %eax
	subl	$1, %eax
	movl	%eax, %edi
	call	fibonacci
	movl	%eax, %ebx
	movl	-20(%rbp), %eax
	subl	$2, %eax
	movl	%eax, %edi
	call	fibonacci
	addl	%ebx, %eax
.L6:
	addq	$24, %rsp
	popq	%rbx
	popq	%rbp
	.cfi_def_cfa 7, 8
	ret
	.cfi_endproc
.LFE7:
	.size	fibonacci, .-fibonacci
	.ident	"GCC: (Ubuntu 9.3.0-17ubuntu1~20.04) 9.3.0"
	.section	.note.GNU-stack,"",@progbits
	.section	.note.gnu.property,"a"
	.align 8
	.long	 1f - 0f
	.long	 4f - 1f
	.long	 5
0:
	.string	 "GNU"
1:
	.align 8
	.long	 0xc0000002
	.long	 3f - 2f
2:
	.long	 0x3
3:
	.align 8
4:
