	.file	"twerp.c"
	.text
	.section	.rodata
.LC0:
	.string	"Enter a number"
.LC1:
	.string	"%d"
.LC2:
	.string	"\nThe sum of the digits is %d"
	.text
	.globl	main
	.type	main, @function
main:
.LFB0:
	.cfi_startproc
	endbr64
	pushq	%rbp
	.cfi_def_cfa_offset 16
	.cfi_offset 6, -16
	movq	%rsp, %rbp
	.cfi_def_cfa_register 6
	subq	$16, %rsp
	movq	%fs:40, %rax
	movq	%rax, -8(%rbp)
	xorl	%eax, %eax
	leaq	.LC0(%rip), %rdi
	call	puts@PLT
	leaq	-16(%rbp), %rax
	movq	%rax, %rsi
	leaq	.LC1(%rip), %rdi
	movl	$0, %eax
	call	__isoc99_scanf@PLT
	movl	$0, -12(%rbp)
	movl	-12(%rbp), %eax
	movl	%eax, %esi
	leaq	.LC2(%rip), %rdi
	movl	$0, %eax
	call	printf@PLT
	movl	-16(%rbp), %eax
	movl	%eax, %edi
	call	find_digits
	movl	%eax, -12(%rbp)
	movl	-12(%rbp), %eax
	movl	%eax, %esi
	leaq	.LC2(%rip), %rdi
	movl	$0, %eax
	call	printf@PLT
	movl	$0, %eax
	movq	-8(%rbp), %rdx
	xorq	%fs:40, %rdx
	je	.L3
	call	__stack_chk_fail@PLT
.L3:
	leave
	.cfi_def_cfa 7, 8
	ret
	.cfi_endproc
.LFE0:
	.size	main, .-main
	.section	.rodata
.LC3:
	.string	"\nDigit is %d"
.LC4:
	.string	"\nsum is %d"
.LC5:
	.string	"\n1. Num is %d and sum is %d"
.LC6:
	.string	"\n2. Num is %d and sum is %d"
	.text
	.globl	find_digits
	.type	find_digits, @function
find_digits:
.LFB1:
	.cfi_startproc
	endbr64
	pushq	%rbp
	.cfi_def_cfa_offset 16
	.cfi_offset 6, -16
	movq	%rsp, %rbp
	.cfi_def_cfa_register 6
	subq	$32, %rsp
	movl	%edi, -20(%rbp)
	movl	-20(%rbp), %edx
	movslq	%edx, %rax
	imulq	$1717986919, %rax, %rax
	shrq	$32, %rax
	movl	%eax, %ecx
	sarl	$2, %ecx
	movl	%edx, %eax
	sarl	$31, %eax
	subl	%eax, %ecx
	movl	%ecx, %eax
	sall	$2, %eax
	addl	%ecx, %eax
	addl	%eax, %eax
	subl	%eax, %edx
	movl	%edx, %eax
	movl	%eax, -4(%rbp)
	movl	-4(%rbp), %eax
	movl	%eax, %esi
	leaq	.LC3(%rip), %rdi
	movl	$0, %eax
	call	printf@PLT
	movl	sum.2323(%rip), %edx
	movl	-4(%rbp), %eax
	addl	%edx, %eax
	movl	%eax, sum.2323(%rip)
	movl	sum.2323(%rip), %eax
	movl	%eax, %esi
	leaq	.LC4(%rip), %rdi
	movl	$0, %eax
	call	printf@PLT
	cmpl	$0, -20(%rbp)
	jg	.L5
	movl	sum.2323(%rip), %edx
	movl	-20(%rbp), %eax
	movl	%eax, %esi
	leaq	.LC5(%rip), %rdi
	movl	$0, %eax
	call	printf@PLT
	movl	sum.2323(%rip), %eax
	jmp	.L6
.L5:
	movl	sum.2323(%rip), %edx
	movl	-20(%rbp), %eax
	movl	%eax, %esi
	leaq	.LC6(%rip), %rdi
	movl	$0, %eax
	call	printf@PLT
	movl	-20(%rbp), %eax
	movslq	%eax, %rdx
	imulq	$1717986919, %rdx, %rdx
	shrq	$32, %rdx
	sarl	$2, %edx
	sarl	$31, %eax
	subl	%eax, %edx
	movl	%edx, %eax
	movl	%eax, %edi
	call	find_digits
	movl	sum.2323(%rip), %edx
	addl	%edx, %eax
.L6:
	leave
	.cfi_def_cfa 7, 8
	ret
	.cfi_endproc
.LFE1:
	.size	find_digits, .-find_digits
	.local	sum.2323
	.comm	sum.2323,4,4
	.ident	"GCC: (Ubuntu 9.3.0-17ubuntu1~20.04) 9.3.0"
	.section	.note.GNU-stack,"",@progbits
	.section	.note.gnu.property,"a"
	.align 8
	.long	 1f - 0f
	.long	 4f - 1f
	.long	 5
0:
	.string	 "GNU"
1:
	.align 8
	.long	 0xc0000002
	.long	 3f - 2f
2:
	.long	 0x3
3:
	.align 8
4:
